	.text
	.file	"hisi-blk-busy-idle-notify.c"
                                        // Start of file scope inline assembly
	.section "___kcrctab+blk_busy_idle_event_subscriber", "a"	
	.weak	__crc_blk_busy_idle_event_subscriber	
	.long	__crc_blk_busy_idle_event_subscriber	
	.previous					
	.section "___kcrctab+blk_queue_busy_idle_event_subscriber", "a"	
	.weak	__crc_blk_queue_busy_idle_event_subscriber	
	.long	__crc_blk_queue_busy_idle_event_subscriber	
	.previous					
	.section "___kcrctab+blk_lld_busy_idle_event_subscriber", "a"	
	.weak	__crc_blk_lld_busy_idle_event_subscriber	
	.long	__crc_blk_lld_busy_idle_event_subscriber	
	.previous					
	.section "___kcrctab+blk_busy_idle_event_unsubscriber", "a"	
	.weak	__crc_blk_busy_idle_event_unsubscriber	
	.long	__crc_blk_busy_idle_event_unsubscriber	
	.previous					
	.section "___kcrctab+blk_queue_busy_idle_event_unsubscriber", "a"	
	.weak	__crc_blk_queue_busy_idle_event_unsubscriber	
	.long	__crc_blk_queue_busy_idle_event_unsubscriber	
	.previous					
	.section "___kcrctab+blk_queue_busy_idle_enable", "a"	
	.weak	__crc_blk_queue_busy_idle_enable	
	.long	__crc_blk_queue_busy_idle_enable	
	.previous					
	.section "___kcrctab+blk_mq_tagset_busy_idle_enable", "a"	
	.weak	__crc_blk_mq_tagset_busy_idle_enable	
	.long	__crc_blk_mq_tagset_busy_idle_enable	
	.previous					
	.section "___kcrctab+blk_mq_tagset_hw_idle_notify_enable", "a"	
	.weak	__crc_blk_mq_tagset_hw_idle_notify_enable	
	.long	__crc_blk_mq_tagset_hw_idle_notify_enable	
	.previous					

                                        // End of file scope inline assembly
	.file	1 "/mnt/disk/jenkins/workspace/release/opensource/component_code/vendor/huawei/extra/build/build_script/kirin_kernel_release/kernel/include/linux/lockdep.h"
	.file	2 "/mnt/disk/jenkins/workspace/release/opensource/component_code/vendor/huawei/extra/build/build_script/kirin_kernel_release/kernel/block/hisi-blk-busy-idle-notify.c"
	.file	3 "/mnt/disk/jenkins/workspace/release/opensource/component_code/vendor/huawei/extra/build/build_script/kirin_kernel_release/kernel/include/linux/export.h"
	.file	4 "/mnt/disk/jenkins/workspace/release/opensource/component_code/vendor/huawei/extra/build/build_script/kirin_kernel_release/kernel/include/linux/blkdev.h"
	.file	5 "/mnt/disk/jenkins/workspace/release/opensource/component_code/vendor/huawei/extra/build/build_script/kirin_kernel_release/kernel/include/linux/kobject_ns.h"
	.file	6 "/mnt/disk/jenkins/workspace/release/opensource/component_code/vendor/huawei/extra/build/build_script/kirin_kernel_release/kernel/include/linux/hrtimer.h"
	.file	7 "/mnt/disk/jenkins/workspace/release/opensource/component_code/vendor/huawei/extra/build/build_script/kirin_kernel_release/kernel/include/linux/module.h"
	.file	8 "/mnt/disk/jenkins/workspace/release/opensource/component_code/vendor/huawei/extra/build/build_script/kirin_kernel_release/kernel/include/linux/quota.h"
	.file	9 "/mnt/disk/jenkins/workspace/release/opensource/component_code/vendor/huawei/extra/build/build_script/kirin_kernel_release/kernel/include/linux/fs.h"
	.file	10 "/mnt/disk/jenkins/workspace/release/opensource/component_code/vendor/huawei/extra/build/build_script/kirin_kernel_release/kernel/include/linux/pid.h"
	.file	11 "/mnt/disk/jenkins/workspace/release/opensource/component_code/vendor/huawei/extra/build/build_script/kirin_kernel_release/kernel/include/linux/device.h"
	.file	12 "/mnt/disk/jenkins/workspace/release/opensource/component_code/vendor/huawei/extra/build/build_script/kirin_kernel_release/kernel/include/linux/pm.h"
	.file	13 "/mnt/disk/jenkins/workspace/release/opensource/component_code/vendor/huawei/extra/build/build_script/kirin_kernel_release/kernel/include/linux/rcu_sync.h"
	.file	14 "/mnt/disk/jenkins/workspace/release/opensource/component_code/vendor/huawei/extra/build/build_script/kirin_kernel_release/kernel/include/linux/migrate_mode.h"
	.file	15 "/mnt/disk/jenkins/workspace/release/opensource/component_code/vendor/huawei/extra/build/build_script/kirin_kernel_release/kernel/include/linux/memremap.h"
	.file	16 "/mnt/disk/jenkins/workspace/release/opensource/component_code/vendor/huawei/extra/build/build_script/kirin_kernel_release/kernel/include/linux/mm.h"
	.file	17 "/mnt/disk/jenkins/workspace/release/opensource/component_code/vendor/huawei/extra/build/build_script/kirin_kernel_release/kernel/include/linux/restart_block.h"
	.file	18 "/mnt/disk/jenkins/workspace/release/opensource/component_code/vendor/huawei/extra/build/build_script/kirin_kernel_release/kernel/include/linux/blk_types.h"
	.file	19 "/mnt/disk/jenkins/workspace/release/opensource/component_code/vendor/huawei/extra/build/build_script/kirin_kernel_release/kernel/include/linux/elevator.h"
	.file	20 "/mnt/disk/jenkins/workspace/release/opensource/component_code/vendor/huawei/extra/build/build_script/kirin_kernel_release/kernel/block/hisi-blk.h"
	.file	21 "/mnt/disk/jenkins/workspace/release/opensource/component_code/vendor/huawei/extra/build/build_script/kirin_kernel_release/kernel/include/linux/stddef.h"
	.file	22 "/mnt/disk/jenkins/workspace/release/opensource/component_code/vendor/huawei/extra/build/build_script/kirin_kernel_release/kernel/include/linux/workqueue.h"
	.file	23 "/mnt/disk/jenkins/workspace/release/opensource/component_code/vendor/huawei/extra/build/build_script/kirin_kernel_release/kernel/include/linux/types.h"
	.file	24 "/mnt/disk/jenkins/workspace/release/opensource/component_code/vendor/huawei/extra/build/build_script/kirin_kernel_release/kernel/block/hisi-blk-busy-idle-notify.h"
	.file	25 "/mnt/disk/jenkins/workspace/release/opensource/component_code/vendor/huawei/extra/build/build_script/kirin_kernel_release/kernel/include/linux/llist.h"
	.file	26 "/mnt/disk/jenkins/workspace/release/opensource/component_code/vendor/huawei/extra/build/build_script/kirin_kernel_release/kernel/include/linux/smp.h"
	.file	27 "/mnt/disk/jenkins/workspace/release/opensource/component_code/vendor/huawei/extra/build/build_script/kirin_kernel_release/kernel/include/asm-generic/int-ll64.h"
	.file	28 "/mnt/disk/jenkins/workspace/release/opensource/component_code/vendor/huawei/extra/build/build_script/kirin_kernel_release/kernel/arch/arm64/include/asm/spinlock_types.h"
	.file	29 "/mnt/disk/jenkins/workspace/release/opensource/component_code/vendor/huawei/extra/build/build_script/kirin_kernel_release/kernel/include/linux/spinlock_types.h"
	.file	30 "/mnt/disk/jenkins/workspace/release/opensource/component_code/vendor/huawei/extra/build/build_script/kirin_kernel_release/kernel/block/blk-mq.h"
	.file	31 "/mnt/disk/jenkins/workspace/release/opensource/component_code/vendor/huawei/extra/build/build_script/kirin_kernel_release/kernel/include/linux/kobject.h"
	.file	32 "/mnt/disk/jenkins/workspace/release/opensource/component_code/vendor/huawei/extra/build/build_script/kirin_kernel_release/kernel/include/uapi/asm-generic/posix_types.h"
	.file	33 "/mnt/disk/jenkins/workspace/release/opensource/component_code/vendor/huawei/extra/build/build_script/kirin_kernel_release/kernel/include/linux/sysfs.h"
	.file	34 "/mnt/disk/jenkins/workspace/release/opensource/component_code/vendor/huawei/extra/build/build_script/kirin_kernel_release/kernel/include/linux/kernfs.h"
	.file	35 "/mnt/disk/jenkins/workspace/release/opensource/component_code/vendor/huawei/extra/build/build_script/kirin_kernel_release/kernel/include/linux/rbtree.h"
	.file	36 "/mnt/disk/jenkins/workspace/release/opensource/component_code/vendor/huawei/extra/build/build_script/kirin_kernel_release/kernel/include/linux/radix-tree.h"
	.file	37 "/mnt/disk/jenkins/workspace/release/opensource/component_code/vendor/huawei/extra/build/build_script/kirin_kernel_release/kernel/include/linux/idr.h"
	.file	38 "/mnt/disk/jenkins/workspace/release/opensource/component_code/vendor/huawei/extra/build/build_script/kirin_kernel_release/kernel/include/linux/seq_file.h"
	.file	39 "/mnt/disk/jenkins/workspace/release/opensource/component_code/vendor/huawei/extra/build/build_script/kirin_kernel_release/kernel/include/asm-generic/atomic-long.h"
	.file	40 "/mnt/disk/jenkins/workspace/release/opensource/component_code/vendor/huawei/extra/build/build_script/kirin_kernel_release/kernel/include/linux/mutex.h"
	.file	41 "/mnt/disk/jenkins/workspace/release/opensource/component_code/vendor/huawei/extra/build/build_script/kirin_kernel_release/kernel/include/linux/osq_lock.h"
	.file	42 "/mnt/disk/jenkins/workspace/release/opensource/component_code/vendor/huawei/extra/build/build_script/kirin_kernel_release/kernel/arch/arm64/include/asm/thread_info.h"
	.file	43 "/mnt/disk/jenkins/workspace/release/opensource/component_code/vendor/huawei/extra/build/build_script/kirin_kernel_release/kernel/include/linux/sched.h"
	.file	44 "/mnt/disk/jenkins/workspace/release/opensource/component_code/vendor/huawei/extra/build/build_script/kirin_kernel_release/kernel/include/linux/timerqueue.h"
	.file	45 "/mnt/disk/jenkins/workspace/release/opensource/component_code/vendor/huawei/extra/build/build_script/kirin_kernel_release/kernel/include/linux/ktime.h"
	.file	46 "/mnt/disk/jenkins/workspace/release/opensource/component_code/vendor/huawei/extra/build/build_script/kirin_kernel_release/kernel/include/linux/seqlock.h"
	.file	47 "/mnt/disk/jenkins/workspace/release/opensource/component_code/vendor/huawei/extra/build/build_script/kirin_kernel_release/kernel/include/linux/cpumask.h"
	.file	48 "/mnt/disk/jenkins/workspace/release/opensource/component_code/vendor/huawei/extra/build/build_script/kirin_kernel_release/kernel/include/linux/plist.h"
	.file	49 "/mnt/disk/jenkins/workspace/release/opensource/component_code/vendor/huawei/extra/build/build_script/kirin_kernel_release/kernel/include/linux/mm_types.h"
	.file	50 "/mnt/disk/jenkins/workspace/release/opensource/component_code/vendor/huawei/extra/build/build_script/kirin_kernel_release/kernel/arch/arm64/include/asm/pgtable-types.h"
	.file	51 "/mnt/disk/jenkins/workspace/release/opensource/component_code/vendor/huawei/extra/build/build_script/kirin_kernel_release/kernel/include/asm-generic/pgtable-nop4d-hack.h"
	.file	52 "/mnt/disk/jenkins/workspace/release/opensource/component_code/vendor/huawei/extra/build/build_script/kirin_kernel_release/kernel/include/linux/uidgid.h"
	.file	53 "/mnt/disk/jenkins/workspace/release/opensource/component_code/vendor/huawei/extra/build/build_script/kirin_kernel_release/kernel/include/linux/dcache.h"
	.file	54 "/mnt/disk/jenkins/workspace/release/opensource/component_code/vendor/huawei/extra/build/build_script/kirin_kernel_release/kernel/include/linux/list_bl.h"
	.file	55 "/mnt/disk/jenkins/workspace/release/opensource/component_code/vendor/huawei/extra/build/build_script/kirin_kernel_release/kernel/include/linux/lockref.h"
	.file	56 "/mnt/disk/jenkins/workspace/release/opensource/component_code/vendor/huawei/extra/build/build_script/kirin_kernel_release/kernel/include/linux/path.h"
	.file	57 "/mnt/disk/jenkins/workspace/release/opensource/component_code/vendor/huawei/extra/build/build_script/kirin_kernel_release/kernel/include/uapi/asm-generic/int-ll64.h"
	.file	58 "/mnt/disk/jenkins/workspace/release/opensource/component_code/vendor/huawei/extra/build/build_script/kirin_kernel_release/kernel/include/linux/completion.h"
	.file	59 "/mnt/disk/jenkins/workspace/release/opensource/component_code/vendor/huawei/extra/build/build_script/kirin_kernel_release/kernel/include/linux/wait.h"
	.file	60 "/mnt/disk/jenkins/workspace/release/opensource/component_code/vendor/huawei/extra/build/build_script/kirin_kernel_release/kernel/include/linux/cfi.h"
	.file	61 "/mnt/disk/jenkins/workspace/release/opensource/component_code/vendor/huawei/extra/build/build_script/kirin_kernel_release/kernel/include/linux/moduleparam.h"
	.file	62 "/mnt/disk/jenkins/workspace/release/opensource/component_code/vendor/huawei/extra/build/build_script/kirin_kernel_release/kernel/arch/arm64/include/asm/extable.h"
	.file	63 "/mnt/disk/jenkins/workspace/release/opensource/component_code/vendor/huawei/extra/build/build_script/kirin_kernel_release/kernel/include/linux/rbtree_latch.h"
	.file	64 "/mnt/disk/jenkins/workspace/release/opensource/component_code/vendor/huawei/extra/build/build_script/kirin_kernel_release/kernel/include/uapi/linux/elf.h"
	.file	65 "/mnt/disk/jenkins/workspace/release/opensource/component_code/vendor/huawei/extra/build/build_script/kirin_kernel_release/kernel/arch/arm64/include/asm/module.h"
	.file	66 "/mnt/disk/jenkins/workspace/release/opensource/component_code/vendor/huawei/extra/build/build_script/kirin_kernel_release/kernel/include/uapi/linux/types.h"
	.file	67 "/mnt/disk/jenkins/workspace/release/opensource/component_code/vendor/huawei/extra/build/build_script/kirin_kernel_release/kernel/include/asm-generic/bug.h"
	.file	68 "/mnt/disk/jenkins/workspace/release/opensource/component_code/vendor/huawei/extra/build/build_script/kirin_kernel_release/kernel/include/linux/tracepoint-defs.h"
	.file	69 "/mnt/disk/jenkins/workspace/release/opensource/component_code/vendor/huawei/extra/build/build_script/kirin_kernel_release/kernel/include/linux/jump_label.h"
	.file	70 "/mnt/disk/jenkins/workspace/release/opensource/component_code/vendor/huawei/extra/build/build_script/kirin_kernel_release/kernel/include/linux/tracepoint.h"
	.file	71 "/mnt/disk/jenkins/workspace/release/opensource/component_code/vendor/huawei/extra/build/build_script/kirin_kernel_release/kernel/include/linux/projid.h"
	.file	72 "/mnt/disk/jenkins/workspace/release/opensource/component_code/vendor/huawei/extra/build/build_script/kirin_kernel_release/kernel/include/linux/time64.h"
	.file	73 "/mnt/disk/jenkins/workspace/release/opensource/component_code/vendor/huawei/extra/build/build_script/kirin_kernel_release/kernel/include/linux/shrinker.h"
	.file	74 "/mnt/disk/jenkins/workspace/release/opensource/component_code/vendor/huawei/extra/build/build_script/kirin_kernel_release/kernel/include/linux/rwsem.h"
	.file	75 "/mnt/disk/jenkins/workspace/release/opensource/component_code/vendor/huawei/extra/build/build_script/kirin_kernel_release/kernel/include/linux/genhd.h"
	.file	76 "/mnt/disk/jenkins/workspace/release/opensource/component_code/vendor/huawei/extra/build/build_script/kirin_kernel_release/kernel/include/linux/uio.h"
	.file	77 "/mnt/disk/jenkins/workspace/release/opensource/component_code/vendor/huawei/extra/build/build_script/kirin_kernel_release/kernel/include/uapi/linux/uio.h"
	.file	78 "/mnt/disk/jenkins/workspace/release/opensource/component_code/vendor/huawei/extra/build/build_script/kirin_kernel_release/kernel/include/linux/bvec.h"
	.file	79 "/mnt/disk/jenkins/workspace/release/opensource/component_code/vendor/huawei/extra/build/build_script/kirin_kernel_release/kernel/include/linux/poll.h"
	.file	80 "/mnt/disk/jenkins/workspace/release/opensource/component_code/vendor/huawei/extra/build/build_script/kirin_kernel_release/kernel/include/linux/nfs_fs_i.h"
	.file	81 "/mnt/disk/jenkins/workspace/release/opensource/component_code/vendor/huawei/extra/build/build_script/kirin_kernel_release/kernel/include/linux/rwlock_types.h"
	.file	82 "/mnt/disk/jenkins/workspace/release/opensource/component_code/vendor/huawei/extra/build/build_script/kirin_kernel_release/kernel/include/linux/cred.h"
	.file	83 "/mnt/disk/jenkins/workspace/release/opensource/component_code/vendor/huawei/extra/build/build_script/kirin_kernel_release/kernel/include/linux/capability.h"
	.file	84 "/mnt/disk/jenkins/workspace/release/opensource/component_code/vendor/huawei/extra/build/build_script/kirin_kernel_release/kernel/include/linux/refcount.h"
	.file	85 "/mnt/disk/jenkins/workspace/release/opensource/component_code/vendor/huawei/extra/build/build_script/kirin_kernel_release/kernel/include/linux/key.h"
	.file	86 "/mnt/disk/jenkins/workspace/release/opensource/component_code/vendor/huawei/extra/build/build_script/kirin_kernel_release/kernel/include/linux/assoc_array.h"
	.file	87 "/mnt/disk/jenkins/workspace/release/opensource/component_code/vendor/huawei/extra/build/build_script/kirin_kernel_release/kernel/include/linux/sched/user.h"
	.file	88 "/mnt/disk/jenkins/workspace/release/opensource/component_code/vendor/huawei/extra/build/build_script/kirin_kernel_release/kernel/include/linux/errseq.h"
	.file	89 "/mnt/disk/jenkins/workspace/release/opensource/component_code/vendor/huawei/extra/build/build_script/kirin_kernel_release/kernel/include/linux/pm_wakeup.h"
	.file	90 "/mnt/disk/jenkins/workspace/release/opensource/component_code/vendor/huawei/extra/build/build_script/kirin_kernel_release/kernel/include/linux/timer.h"
	.file	91 "/mnt/disk/jenkins/workspace/release/opensource/component_code/vendor/huawei/extra/build/build_script/kirin_kernel_release/kernel/include/linux/pinctrl/devinfo.h"
	.file	92 "/mnt/disk/jenkins/workspace/release/opensource/component_code/vendor/huawei/extra/build/build_script/kirin_kernel_release/kernel/arch/arm64/include/asm/device.h"
	.file	93 "/mnt/disk/jenkins/workspace/release/opensource/component_code/vendor/huawei/extra/build/build_script/kirin_kernel_release/kernel/include/linux/klist.h"
	.file	94 "/mnt/disk/jenkins/workspace/release/opensource/component_code/vendor/huawei/extra/build/build_script/kirin_kernel_release/kernel/include/linux/kref.h"
	.file	95 "/mnt/disk/jenkins/workspace/release/opensource/component_code/vendor/huawei/extra/build/build_script/kirin_kernel_release/kernel/include/linux/percpu-refcount.h"
	.file	96 "/mnt/disk/jenkins/workspace/release/opensource/component_code/vendor/huawei/extra/build/build_script/kirin_kernel_release/kernel/include/linux/backing-dev-defs.h"
	.file	97 "/mnt/disk/jenkins/workspace/release/opensource/component_code/vendor/huawei/extra/build/build_script/kirin_kernel_release/kernel/include/linux/percpu_counter.h"
	.file	98 "/mnt/disk/jenkins/workspace/release/opensource/component_code/vendor/huawei/extra/build/build_script/kirin_kernel_release/kernel/include/linux/flex_proportions.h"
	.file	99 "/mnt/disk/jenkins/workspace/release/opensource/component_code/vendor/huawei/extra/build/build_script/kirin_kernel_release/kernel/include/linux/percpu-rwsem.h"
	.file	100 "/mnt/disk/jenkins/workspace/release/opensource/component_code/vendor/huawei/extra/build/build_script/kirin_kernel_release/kernel/include/linux/rcuwait.h"
	.file	101 "/mnt/disk/jenkins/workspace/release/opensource/component_code/vendor/huawei/extra/build/build_script/kirin_kernel_release/kernel/include/linux/uuid.h"
	.file	102 "/mnt/disk/jenkins/workspace/release/opensource/component_code/vendor/huawei/extra/build/build_script/kirin_kernel_release/kernel/include/linux/list_lru.h"
	.file	103 "/mnt/disk/jenkins/workspace/release/opensource/component_code/vendor/huawei/extra/build/build_script/kirin_kernel_release/kernel/include/linux/delayed_call.h"
	.file	104 "/mnt/disk/jenkins/workspace/release/opensource/component_code/vendor/huawei/extra/build/build_script/kirin_kernel_release/kernel/include/uapi/linux/time.h"
	.file	105 "/mnt/disk/jenkins/workspace/release/opensource/component_code/vendor/huawei/extra/build/build_script/kirin_kernel_release/kernel/include/linux/stat.h"
	.file	106 "/mnt/disk/jenkins/workspace/release/opensource/component_code/vendor/huawei/extra/build/build_script/kirin_kernel_release/kernel/include/uapi/linux/fiemap.h"
	.file	107 "/mnt/disk/jenkins/workspace/release/opensource/component_code/vendor/huawei/extra/build/build_script/kirin_kernel_release/kernel/include/linux/mmzone.h"
	.file	108 "/mnt/disk/jenkins/workspace/release/opensource/component_code/vendor/huawei/extra/build/build_script/kirin_kernel_release/kernel/include/linux/ioport.h"
	.file	109 "/mnt/disk/jenkins/workspace/release/opensource/component_code/vendor/huawei/extra/build/build_script/kirin_kernel_release/kernel/arch/arm64/include/asm/page.h"
	.file	110 "/mnt/disk/jenkins/workspace/release/opensource/component_code/vendor/huawei/extra/build/build_script/kirin_kernel_release/kernel/include/linux/mm_types_task.h"
	.file	111 "/mnt/disk/jenkins/workspace/release/opensource/component_code/vendor/huawei/extra/build/build_script/kirin_kernel_release/kernel/arch/arm64/include/asm/mmu.h"
	.file	112 "/mnt/disk/jenkins/workspace/release/opensource/component_code/vendor/huawei/extra/build/build_script/kirin_kernel_release/kernel/include/linux/uprobes.h"
	.file	113 "/mnt/disk/jenkins/workspace/release/opensource/component_code/vendor/huawei/extra/build/build_script/kirin_kernel_release/kernel/arch/arm64/include/asm/compat.h"
	.file	114 "/mnt/disk/jenkins/workspace/release/opensource/component_code/vendor/huawei/extra/build/build_script/kirin_kernel_release/kernel/include/uapi/asm-generic/poll.h"
	.file	115 "/mnt/disk/jenkins/workspace/release/opensource/component_code/vendor/huawei/extra/build/build_script/kirin_kernel_release/kernel/include/uapi/asm-generic/signal.h"
	.file	116 "/mnt/disk/jenkins/workspace/release/opensource/component_code/vendor/huawei/extra/build/build_script/kirin_kernel_release/kernel/include/linux/signal_types.h"
	.file	117 "/mnt/disk/jenkins/workspace/release/opensource/component_code/vendor/huawei/extra/build/build_script/kirin_kernel_release/kernel/include/linux/seccomp.h"
	.file	118 "/mnt/disk/jenkins/workspace/release/opensource/component_code/vendor/huawei/extra/build/build_script/kirin_kernel_release/kernel/include/linux/iocontext.h"
	.file	119 "/mnt/disk/jenkins/workspace/release/opensource/component_code/vendor/huawei/extra/build/build_script/kirin_kernel_release/kernel/include/linux/bio.h"
	.file	120 "/mnt/disk/jenkins/workspace/release/opensource/component_code/vendor/huawei/extra/build/build_script/kirin_kernel_release/kernel/include/linux/mempool.h"
	.file	121 "/mnt/disk/jenkins/workspace/release/opensource/component_code/vendor/huawei/extra/build/build_script/kirin_kernel_release/kernel/include/uapi/asm-generic/siginfo.h"
	.file	122 "/mnt/disk/jenkins/workspace/release/opensource/component_code/vendor/huawei/extra/build/build_script/kirin_kernel_release/kernel/include/linux/task_io_accounting.h"
	.file	123 "/mnt/disk/jenkins/workspace/release/opensource/component_code/vendor/huawei/extra/build/build_script/kirin_kernel_release/kernel/include/linux/nodemask.h"
	.file	124 "/mnt/disk/jenkins/workspace/release/opensource/component_code/vendor/huawei/extra/build/build_script/kirin_kernel_release/kernel/include/linux/compat.h"
	.file	125 "/mnt/disk/jenkins/workspace/release/opensource/component_code/vendor/huawei/extra/build/build_script/kirin_kernel_release/kernel/arch/arm64/include/asm/processor.h"
	.file	126 "/mnt/disk/jenkins/workspace/release/opensource/component_code/vendor/huawei/extra/build/build_script/kirin_kernel_release/kernel/arch/arm64/include/uapi/asm/ptrace.h"
	.file	127 "/mnt/disk/jenkins/workspace/release/opensource/component_code/vendor/huawei/extra/build/build_script/kirin_kernel_release/kernel/arch/arm64/include/asm/fpsimd.h"
	.file	128 "/mnt/disk/jenkins/workspace/release/opensource/component_code/vendor/huawei/extra/build/build_script/kirin_kernel_release/kernel/include/linux/blk-mq.h"
	.file	129 "/mnt/disk/jenkins/workspace/release/opensource/component_code/vendor/huawei/extra/build/build_script/kirin_kernel_release/kernel/block/blk.h"
	.file	130 "/mnt/disk/jenkins/workspace/release/opensource/component_code/vendor/huawei/extra/build/build_script/kirin_kernel_release/kernel/include/linux/sbitmap.h"
	.file	131 "/mnt/disk/jenkins/workspace/release/opensource/component_code/vendor/huawei/extra/build/build_script/kirin_kernel_release/kernel/include/linux/srcutree.h"
	.file	132 "/mnt/disk/jenkins/workspace/release/opensource/component_code/vendor/huawei/extra/build/build_script/kirin_kernel_release/kernel/include/linux/rcu_segcblist.h"
	.file	133 "/mnt/disk/jenkins/workspace/release/opensource/component_code/vendor/huawei/extra/build/build_script/kirin_kernel_release/kernel/block/blk-stat.h"
	.file	134 "/mnt/disk/jenkins/workspace/release/opensource/component_code/vendor/huawei/extra/build/build_script/kirin_kernel_release/kernel/include/linux/bsg.h"
	.file	135 "/mnt/disk/jenkins/workspace/release/opensource/component_code/vendor/huawei/extra/build/build_script/kirin_kernel_release/kernel/include/linux/notifier.h"
	.section	.text.hisi_blk_busy_idle_handler_latency_check_timer_expire,"ax",@progbits
	.hidden	hisi_blk_busy_idle_handler_latency_check_timer_expire // -- Begin function hisi_blk_busy_idle_handler_latency_check_timer_expire
	.globl	hisi_blk_busy_idle_handler_latency_check_timer_expire
	.p2align	2
	.type	hisi_blk_busy_idle_handler_latency_check_timer_expire,@function
hisi_blk_busy_idle_handler_latency_check_timer_expire: // @hisi_blk_busy_idle_handler_latency_check_timer_expire
.Lfunc_begin0:
	.loc	2 22 0                  // /mnt/disk/jenkins/workspace/release/opensource/component_code/vendor/huawei/extra/build/build_script/kirin_kernel_release/kernel/block/hisi-blk-busy-idle-notify.c:22:0
	.cfi_sections .debug_frame
	.cfi_startproc
// %bb.0:
	stp	x29, x30, [sp, #-16]!   // 16-byte Folded Spill
	mov	x29, sp
	.cfi_def_cfa w29, 16
	.cfi_offset w30, -8
	.cfi_offset w29, -16
	//DEBUG_VALUE: hisi_blk_busy_idle_handler_latency_check_timer_expire:data <- $x0
	//DEBUG_VALUE: hisi_blk_busy_idle_handler_latency_check_timer_expire:data <- $x0
.Ltmp0:
	//DEBUG_VALUE: hisi_blk_busy_idle_handler_latency_check_timer_expire:notify_nb <- $x0
	.loc	2 25 2 prologue_end     // /mnt/disk/jenkins/workspace/release/opensource/component_code/vendor/huawei/extra/build/build_script/kirin_kernel_release/kernel/block/hisi-blk-busy-idle-notify.c:25:2
	add	x2, x0, #96             // =96
	adrp	x0, .L.str
.Ltmp1:
	adrp	x1, .L__func__.hisi_blk_busy_idle_handler_latency_check_timer_expire
	add	x0, x0, :lo12:.L.str
	add	x1, x1, :lo12:.L__func__.hisi_blk_busy_idle_handler_latency_check_timer_expire
	mov	w3, #1000
	bl	printk
	.loc	2 28 1                  // /mnt/disk/jenkins/workspace/release/opensource/component_code/vendor/huawei/extra/build/build_script/kirin_kernel_release/kernel/block/hisi-blk-busy-idle-notify.c:28:1
	ldp	x29, x30, [sp], #16     // 16-byte Folded Reload
	ret
.Ltmp2:
.Lfunc_end0:
	.size	hisi_blk_busy_idle_handler_latency_check_timer_expire, .Lfunc_end0-hisi_blk_busy_idle_handler_latency_check_timer_expire
	.cfi_endproc
                                        // -- End function
	.section	.text.hisi_blk_busy_idle_notify_handler,"ax",@progbits
	.hidden	hisi_blk_busy_idle_notify_handler // -- Begin function hisi_blk_busy_idle_notify_handler
	.globl	hisi_blk_busy_idle_notify_handler
	.p2align	2
	.type	hisi_blk_busy_idle_notify_handler,@function
hisi_blk_busy_idle_notify_handler:      // @hisi_blk_busy_idle_notify_handler
.Lfunc_begin1:
	.loc	2 32 0                  // /mnt/disk/jenkins/workspace/release/opensource/component_code/vendor/huawei/extra/build/build_script/kirin_kernel_release/kernel/block/hisi-blk-busy-idle-notify.c:32:0
	.cfi_startproc
// %bb.0:
	stp	x24, x23, [sp, #-64]!   // 16-byte Folded Spill
	stp	x22, x21, [sp, #16]     // 16-byte Folded Spill
	stp	x20, x19, [sp, #32]     // 16-byte Folded Spill
	stp	x29, x30, [sp, #48]     // 16-byte Folded Spill
	add	x29, sp, #48            // =48
	.cfi_def_cfa w29, 16
	.cfi_offset w30, -8
	.cfi_offset w29, -16
	.cfi_offset w19, -24
	.cfi_offset w20, -32
	.cfi_offset w21, -40
	.cfi_offset w22, -48
	.cfi_offset w23, -56
	.cfi_offset w24, -64
	//DEBUG_VALUE: hisi_blk_busy_idle_notify_handler:nb <- $x0
	//DEBUG_VALUE: hisi_blk_busy_idle_notify_handler:val <- $x1
	//DEBUG_VALUE: hisi_blk_busy_idle_notify_handler:v <- $x2
.Ltmp3:
	//DEBUG_VALUE: hisi_blk_busy_idle_notify_handler:notify_nb <- [DW_OP_constu 72, DW_OP_minus, DW_OP_stack_value] $x0
	//DEBUG_VALUE: hisi_blk_busy_idle_notify_handler:handler_result <- 0
	//DEBUG_VALUE: hisi_blk_busy_idle_notify_handler:ret <- 0
	.loc	2 41 6 prologue_end     // /mnt/disk/jenkins/workspace/release/opensource/component_code/vendor/huawei/extra/build/build_script/kirin_kernel_release/kernel/block/hisi-blk-busy-idle-notify.c:41:6
	ldr	x8, [x0, #56]
.Ltmp4:
	.loc	2 39 61                 // /mnt/disk/jenkins/workspace/release/opensource/component_code/vendor/huawei/extra/build/build_script/kirin_kernel_release/kernel/block/hisi-blk-busy-idle-notify.c:39:61
	add	x19, x0, #24            // =24
.Ltmp5:
	//DEBUG_VALUE: hisi_blk_busy_idle_notify_handler:event_node <- $x19
	.loc	2 41 6                  // /mnt/disk/jenkins/workspace/release/opensource/component_code/vendor/huawei/extra/build/build_script/kirin_kernel_release/kernel/block/hisi-blk-busy-idle-notify.c:41:6
	cbz	x8, .LBB1_14
.Ltmp6:
// %bb.1:
	//DEBUG_VALUE: hisi_blk_busy_idle_notify_handler:event_node <- $x19
	//DEBUG_VALUE: hisi_blk_busy_idle_notify_handler:notify_nb <- [DW_OP_constu 72, DW_OP_minus, DW_OP_stack_value] $x0
	//DEBUG_VALUE: hisi_blk_busy_idle_notify_handler:v <- $x2
	//DEBUG_VALUE: hisi_blk_busy_idle_notify_handler:val <- $x1
	//DEBUG_VALUE: hisi_blk_busy_idle_notify_handler:nb <- $x0
	.loc	2 0 6 is_stmt 0         // /mnt/disk/jenkins/workspace/release/opensource/component_code/vendor/huawei/extra/build/build_script/kirin_kernel_release/kernel/block/hisi-blk-busy-idle-notify.c:0:6
	mov	x22, x1
.Ltmp7:
	//DEBUG_VALUE: hisi_blk_busy_idle_notify_handler:val <- $x22
	mov	x23, x0
.Ltmp8:
	//DEBUG_VALUE: hisi_blk_busy_idle_notify_handler:nb <- $x23
	//DEBUG_VALUE: hisi_blk_busy_idle_notify_handler:notify_nb <- [DW_OP_constu 72, DW_OP_minus, DW_OP_stack_value] $x23
	.loc	2 51 23 is_stmt 1       // /mnt/disk/jenkins/workspace/release/opensource/component_code/vendor/huawei/extra/build/build_script/kirin_kernel_release/kernel/block/hisi-blk-busy-idle-notify.c:51:23
	bl	ktime_get
.Ltmp9:
	.loc	2 53 3                  // /mnt/disk/jenkins/workspace/release/opensource/component_code/vendor/huawei/extra/build/build_script/kirin_kernel_release/kernel/block/hisi-blk-busy-idle-notify.c:53:3
	adrp	x8, jiffies
	ldr	x24, [x8, :lo12:jiffies]
	.loc	2 51 23                 // /mnt/disk/jenkins/workspace/release/opensource/component_code/vendor/huawei/extra/build/build_script/kirin_kernel_release/kernel/block/hisi-blk-busy-idle-notify.c:51:23
	mov	x20, x0
.Ltmp10:
	//DEBUG_VALUE: hisi_blk_busy_idle_notify_handler:notify_start_ktime <- $x20
	//DEBUG_VALUE: ktime_add_ms:kt <- $x20
	.file	136 "/mnt/disk/jenkins/workspace/release/opensource/component_code/vendor/huawei/extra/build/build_script/kirin_kernel_release/kernel/include/linux/jiffies.h"
	.loc	136 370 10              // /mnt/disk/jenkins/workspace/release/opensource/component_code/vendor/huawei/extra/build/build_script/kirin_kernel_release/kernel/include/linux/jiffies.h:370:10
	mov	w0, #1000
.Ltmp11:
	.loc	2 52 24                 // /mnt/disk/jenkins/workspace/release/opensource/component_code/vendor/huawei/extra/build/build_script/kirin_kernel_release/kernel/block/hisi-blk-busy-idle-notify.c:52:24
	sub	x21, x23, #48           // =48
.Ltmp12:
	//DEBUG_VALUE: msecs_to_jiffies:m <- 1000
	.loc	136 370 10              // /mnt/disk/jenkins/workspace/release/opensource/component_code/vendor/huawei/extra/build/build_script/kirin_kernel_release/kernel/include/linux/jiffies.h:370:10
	bl	__msecs_to_jiffies
.Ltmp13:
	.loc	2 53 11                 // /mnt/disk/jenkins/workspace/release/opensource/component_code/vendor/huawei/extra/build/build_script/kirin_kernel_release/kernel/block/hisi-blk-busy-idle-notify.c:53:11
	add	x1, x0, x24
	.loc	2 52 2                  // /mnt/disk/jenkins/workspace/release/opensource/component_code/vendor/huawei/extra/build/build_script/kirin_kernel_release/kernel/block/hisi-blk-busy-idle-notify.c:52:2
	mov	x0, x21
	bl	mod_timer
	.loc	2 57 2                  // /mnt/disk/jenkins/workspace/release/opensource/component_code/vendor/huawei/extra/build/build_script/kirin_kernel_release/kernel/block/hisi-blk-busy-idle-notify.c:57:2
	cbz	x22, .LBB1_6
.Ltmp14:
// %bb.2:
	//DEBUG_VALUE: hisi_blk_busy_idle_notify_handler:notify_start_ktime <- $x20
	//DEBUG_VALUE: hisi_blk_busy_idle_notify_handler:notify_nb <- [DW_OP_constu 72, DW_OP_minus, DW_OP_stack_value] $x23
	//DEBUG_VALUE: hisi_blk_busy_idle_notify_handler:nb <- $x23
	//DEBUG_VALUE: hisi_blk_busy_idle_notify_handler:val <- $x22
	//DEBUG_VALUE: hisi_blk_busy_idle_notify_handler:event_node <- $x19
	cmp	x22, #1                 // =1
	b.ne	.LBB1_8
.Ltmp15:
// %bb.3:
	//DEBUG_VALUE: hisi_blk_busy_idle_notify_handler:notify_start_ktime <- $x20
	//DEBUG_VALUE: hisi_blk_busy_idle_notify_handler:notify_nb <- [DW_OP_constu 72, DW_OP_minus, DW_OP_stack_value] $x23
	//DEBUG_VALUE: hisi_blk_busy_idle_notify_handler:nb <- $x23
	//DEBUG_VALUE: hisi_blk_busy_idle_notify_handler:val <- $x22
	//DEBUG_VALUE: hisi_blk_busy_idle_notify_handler:event_node <- $x19
	.loc	2 59 7                  // /mnt/disk/jenkins/workspace/release/opensource/component_code/vendor/huawei/extra/build/build_script/kirin_kernel_release/kernel/block/hisi-blk-busy-idle-notify.c:59:7
	ldr	w8, [x23, #80]
.Ltmp16:
	.loc	2 59 7 is_stmt 0        // /mnt/disk/jenkins/workspace/release/opensource/component_code/vendor/huawei/extra/build/build_script/kirin_kernel_release/kernel/block/hisi-blk-busy-idle-notify.c:59:7
	cbnz	w8, .LBB1_8
.Ltmp17:
// %bb.4:
	//DEBUG_VALUE: hisi_blk_busy_idle_notify_handler:notify_start_ktime <- $x20
	//DEBUG_VALUE: hisi_blk_busy_idle_notify_handler:notify_nb <- [DW_OP_constu 72, DW_OP_minus, DW_OP_stack_value] $x23
	//DEBUG_VALUE: hisi_blk_busy_idle_notify_handler:nb <- $x23
	//DEBUG_VALUE: hisi_blk_busy_idle_notify_handler:val <- $x22
	//DEBUG_VALUE: hisi_blk_busy_idle_notify_handler:event_node <- $x19
	.loc	2 60 22 is_stmt 1       // /mnt/disk/jenkins/workspace/release/opensource/component_code/vendor/huawei/extra/build/build_script/kirin_kernel_release/kernel/block/hisi-blk-busy-idle-notify.c:60:22
	ldr	x8, [x23, #56]
	.loc	2 60 10 is_stmt 0       // /mnt/disk/jenkins/workspace/release/opensource/component_code/vendor/huawei/extra/build/build_script/kirin_kernel_release/kernel/block/hisi-blk-busy-idle-notify.c:60:10
	orr	w1, wzr, #0x1
	mov	x0, x19
	orr	w22, wzr, #0x1
.Ltmp18:
	blr	x8
	mov	w24, w0
.Ltmp19:
	//DEBUG_VALUE: hisi_blk_busy_idle_notify_handler:ret <- $w24
	.loc	2 63 8 is_stmt 1        // /mnt/disk/jenkins/workspace/release/opensource/component_code/vendor/huawei/extra/build/build_script/kirin_kernel_release/kernel/block/hisi-blk-busy-idle-notify.c:63:8
	cmp	w0, #1                  // =1
	.loc	2 62 26                 // /mnt/disk/jenkins/workspace/release/opensource/component_code/vendor/huawei/extra/build/build_script/kirin_kernel_release/kernel/block/hisi-blk-busy-idle-notify.c:62:26
	str	w22, [x23, #80]
	.loc	2 63 8                  // /mnt/disk/jenkins/workspace/release/opensource/component_code/vendor/huawei/extra/build/build_script/kirin_kernel_release/kernel/block/hisi-blk-busy-idle-notify.c:63:8
	b.ne	.LBB1_9
.Ltmp20:
// %bb.5:
	//DEBUG_VALUE: hisi_blk_busy_idle_notify_handler:ret <- $w24
	//DEBUG_VALUE: hisi_blk_busy_idle_notify_handler:notify_start_ktime <- $x20
	//DEBUG_VALUE: hisi_blk_busy_idle_notify_handler:notify_nb <- [DW_OP_constu 72, DW_OP_minus, DW_OP_stack_value] $x23
	//DEBUG_VALUE: hisi_blk_busy_idle_notify_handler:nb <- $x23
	//DEBUG_VALUE: hisi_blk_busy_idle_notify_handler:event_node <- $x19
	//DEBUG_VALUE: hisi_blk_busy_idle_notify_handler:handler_result <- 32769
	.loc	2 65 41                 // /mnt/disk/jenkins/workspace/release/opensource/component_code/vendor/huawei/extra/build/build_script/kirin_kernel_release/kernel/block/hisi-blk-busy-idle-notify.c:65:41
	ldr	x8, [x23, #96]
	mov	w22, #32769
	add	x8, x8, #1              // =1
	str	x8, [x23, #96]
	b	.LBB1_10
.Ltmp21:
.LBB1_6:
	//DEBUG_VALUE: hisi_blk_busy_idle_notify_handler:notify_start_ktime <- $x20
	//DEBUG_VALUE: hisi_blk_busy_idle_notify_handler:notify_nb <- [DW_OP_constu 72, DW_OP_minus, DW_OP_stack_value] $x23
	//DEBUG_VALUE: hisi_blk_busy_idle_notify_handler:nb <- $x23
	//DEBUG_VALUE: hisi_blk_busy_idle_notify_handler:val <- $x22
	//DEBUG_VALUE: hisi_blk_busy_idle_notify_handler:event_node <- $x19
	.loc	2 72 7                  // /mnt/disk/jenkins/workspace/release/opensource/component_code/vendor/huawei/extra/build/build_script/kirin_kernel_release/kernel/block/hisi-blk-busy-idle-notify.c:72:7
	ldr	w8, [x23, #80]
.Ltmp22:
	.loc	2 72 7 is_stmt 0        // /mnt/disk/jenkins/workspace/release/opensource/component_code/vendor/huawei/extra/build/build_script/kirin_kernel_release/kernel/block/hisi-blk-busy-idle-notify.c:72:7
	cmp	w8, #1                  // =1
	b.ne	.LBB1_8
.Ltmp23:
// %bb.7:
	//DEBUG_VALUE: hisi_blk_busy_idle_notify_handler:notify_start_ktime <- $x20
	//DEBUG_VALUE: hisi_blk_busy_idle_notify_handler:notify_nb <- [DW_OP_constu 72, DW_OP_minus, DW_OP_stack_value] $x23
	//DEBUG_VALUE: hisi_blk_busy_idle_notify_handler:nb <- $x23
	//DEBUG_VALUE: hisi_blk_busy_idle_notify_handler:val <- $x22
	//DEBUG_VALUE: hisi_blk_busy_idle_notify_handler:event_node <- $x19
	.loc	2 73 22 is_stmt 1       // /mnt/disk/jenkins/workspace/release/opensource/component_code/vendor/huawei/extra/build/build_script/kirin_kernel_release/kernel/block/hisi-blk-busy-idle-notify.c:73:22
	ldr	x8, [x23, #56]
	.loc	2 73 10 is_stmt 0       // /mnt/disk/jenkins/workspace/release/opensource/component_code/vendor/huawei/extra/build/build_script/kirin_kernel_release/kernel/block/hisi-blk-busy-idle-notify.c:73:10
	mov	x0, x19
	mov	w1, wzr
	blr	x8
	mov	w24, w0
.Ltmp24:
	//DEBUG_VALUE: hisi_blk_busy_idle_notify_handler:ret <- $w24
	.loc	2 0 0                   // /mnt/disk/jenkins/workspace/release/opensource/component_code/vendor/huawei/extra/build/build_script/kirin_kernel_release/kernel/block/hisi-blk-busy-idle-notify.c:0:0
	mov	w22, wzr
.Ltmp25:
	.loc	2 75 26 is_stmt 1       // /mnt/disk/jenkins/workspace/release/opensource/component_code/vendor/huawei/extra/build/build_script/kirin_kernel_release/kernel/block/hisi-blk-busy-idle-notify.c:75:26
	str	wzr, [x23, #80]
	b	.LBB1_10
.Ltmp26:
.LBB1_8:
	//DEBUG_VALUE: hisi_blk_busy_idle_notify_handler:notify_start_ktime <- $x20
	//DEBUG_VALUE: hisi_blk_busy_idle_notify_handler:notify_nb <- [DW_OP_constu 72, DW_OP_minus, DW_OP_stack_value] $x23
	//DEBUG_VALUE: hisi_blk_busy_idle_notify_handler:nb <- $x23
	//DEBUG_VALUE: hisi_blk_busy_idle_notify_handler:val <- $x22
	//DEBUG_VALUE: hisi_blk_busy_idle_notify_handler:event_node <- $x19
	.loc	2 0 0 is_stmt 0         // /mnt/disk/jenkins/workspace/release/opensource/component_code/vendor/huawei/extra/build/build_script/kirin_kernel_release/kernel/block/hisi-blk-busy-idle-notify.c:0:0
	mov	w22, wzr
.Ltmp27:
	mov	w24, wzr
	b	.LBB1_10
.Ltmp28:
.LBB1_9:
	//DEBUG_VALUE: hisi_blk_busy_idle_notify_handler:ret <- $w24
	//DEBUG_VALUE: hisi_blk_busy_idle_notify_handler:notify_start_ktime <- $x20
	//DEBUG_VALUE: hisi_blk_busy_idle_notify_handler:notify_nb <- [DW_OP_constu 72, DW_OP_minus, DW_OP_stack_value] $x23
	//DEBUG_VALUE: hisi_blk_busy_idle_notify_handler:nb <- $x23
	//DEBUG_VALUE: hisi_blk_busy_idle_notify_handler:event_node <- $x19
	mov	w22, wzr
.Ltmp29:
	.loc	2 67 42 is_stmt 1       // /mnt/disk/jenkins/workspace/release/opensource/component_code/vendor/huawei/extra/build/build_script/kirin_kernel_release/kernel/block/hisi-blk-busy-idle-notify.c:67:42
	str	xzr, [x23, #96]
.Ltmp30:
.LBB1_10:
	//DEBUG_VALUE: hisi_blk_busy_idle_notify_handler:notify_start_ktime <- $x20
	//DEBUG_VALUE: hisi_blk_busy_idle_notify_handler:notify_nb <- [DW_OP_constu 72, DW_OP_minus, DW_OP_stack_value] $x23
	//DEBUG_VALUE: hisi_blk_busy_idle_notify_handler:nb <- $x23
	//DEBUG_VALUE: hisi_blk_busy_idle_notify_handler:event_node <- $x19
	//DEBUG_VALUE: hisi_blk_busy_idle_notify_handler:ret <- $w24
	//DEBUG_VALUE: hisi_blk_busy_idle_notify_handler:handler_result <- $w22
	.loc	2 85 2                  // /mnt/disk/jenkins/workspace/release/opensource/component_code/vendor/huawei/extra/build/build_script/kirin_kernel_release/kernel/block/hisi-blk-busy-idle-notify.c:85:2
	mov	x0, x21
	bl	del_timer_sync
.Ltmp31:
	.loc	2 86 6                  // /mnt/disk/jenkins/workspace/release/opensource/component_code/vendor/huawei/extra/build/build_script/kirin_kernel_release/kernel/block/hisi-blk-busy-idle-notify.c:86:6
	bl	ktime_get
.Ltmp32:
	//DEBUG_VALUE: ktime_after:cmp1 <- $x0
	//DEBUG_VALUE: ktime_compare:cmp1 <- $x0
	.loc	2 0 6 is_stmt 0         // /mnt/disk/jenkins/workspace/release/opensource/component_code/vendor/huawei/extra/build/build_script/kirin_kernel_release/kernel/block/hisi-blk-busy-idle-notify.c:0:6
	mov	w8, #38528
	movk	w8, #152, lsl #16
.Ltmp33:
	//DEBUG_VALUE: ktime_add_ms:msec <- 10
	.loc	45 200 9 is_stmt 1      // /mnt/disk/jenkins/workspace/release/opensource/component_code/vendor/huawei/extra/build/build_script/kirin_kernel_release/kernel/include/linux/ktime.h:200:9
	add	x8, x20, x8
.Ltmp34:
	//DEBUG_VALUE: ktime_compare:cmp2 <- $x8
	//DEBUG_VALUE: ktime_after:cmp2 <- $x8
	.loc	2 86 6                  // /mnt/disk/jenkins/workspace/release/opensource/component_code/vendor/huawei/extra/build/build_script/kirin_kernel_release/kernel/block/hisi-blk-busy-idle-notify.c:86:6
	cmp	x0, x8
	b.gt	.LBB1_15
.Ltmp35:
// %bb.11:
	//DEBUG_VALUE: hisi_blk_busy_idle_notify_handler:handler_result <- $w22
	//DEBUG_VALUE: hisi_blk_busy_idle_notify_handler:ret <- $w24
	//DEBUG_VALUE: hisi_blk_busy_idle_notify_handler:notify_start_ktime <- $x20
	//DEBUG_VALUE: hisi_blk_busy_idle_notify_handler:notify_nb <- [DW_OP_constu 72, DW_OP_minus, DW_OP_stack_value] $x23
	//DEBUG_VALUE: hisi_blk_busy_idle_notify_handler:nb <- $x23
	//DEBUG_VALUE: hisi_blk_busy_idle_notify_handler:event_node <- $x19
	.loc	2 94 6                  // /mnt/disk/jenkins/workspace/release/opensource/component_code/vendor/huawei/extra/build/build_script/kirin_kernel_release/kernel/block/hisi-blk-busy-idle-notify.c:94:6
	cmp	w24, #2                 // =2
	b.ne	.LBB1_13
.Ltmp36:
.LBB1_12:
	//DEBUG_VALUE: hisi_blk_busy_idle_notify_handler:handler_result <- $w22
	//DEBUG_VALUE: hisi_blk_busy_idle_notify_handler:ret <- $w24
	//DEBUG_VALUE: hisi_blk_busy_idle_notify_handler:notify_start_ktime <- $x20
	//DEBUG_VALUE: hisi_blk_busy_idle_notify_handler:notify_nb <- [DW_OP_constu 72, DW_OP_minus, DW_OP_stack_value] $x23
	//DEBUG_VALUE: hisi_blk_busy_idle_notify_handler:nb <- $x23
	//DEBUG_VALUE: hisi_blk_busy_idle_notify_handler:event_node <- $x19
	.loc	2 95 3                  // /mnt/disk/jenkins/workspace/release/opensource/component_code/vendor/huawei/extra/build/build_script/kirin_kernel_release/kernel/block/hisi-blk-busy-idle-notify.c:95:3
	adrp	x0, .L.str.3
	adrp	x1, .L__func__.hisi_blk_busy_idle_notify_handler
	add	x0, x0, :lo12:.L.str.3
	add	x1, x1, :lo12:.L__func__.hisi_blk_busy_idle_notify_handler
	mov	x2, x19
	bl	printk
.Ltmp37:
.LBB1_13:
	//DEBUG_VALUE: hisi_blk_busy_idle_notify_handler:event_node <- $x19
	.loc	2 103 1                 // /mnt/disk/jenkins/workspace/release/opensource/component_code/vendor/huawei/extra/build/build_script/kirin_kernel_release/kernel/block/hisi-blk-busy-idle-notify.c:103:1
	mov	w0, w22
	ldp	x29, x30, [sp, #48]     // 16-byte Folded Reload
	ldp	x20, x19, [sp, #32]     // 16-byte Folded Reload
.Ltmp38:
	ldp	x22, x21, [sp, #16]     // 16-byte Folded Reload
	ldp	x24, x23, [sp], #64     // 16-byte Folded Reload
	ret
.LBB1_14:
.Ltmp39:
	//DEBUG_VALUE: hisi_blk_busy_idle_notify_handler:event_node <- $x19
	//DEBUG_VALUE: hisi_blk_busy_idle_notify_handler:notify_nb <- [DW_OP_constu 72, DW_OP_minus, DW_OP_stack_value] $x0
	//DEBUG_VALUE: hisi_blk_busy_idle_notify_handler:v <- $x2
	//DEBUG_VALUE: hisi_blk_busy_idle_notify_handler:val <- $x1
	//DEBUG_VALUE: hisi_blk_busy_idle_notify_handler:nb <- $x0
	.loc	2 42 3                  // /mnt/disk/jenkins/workspace/release/opensource/component_code/vendor/huawei/extra/build/build_script/kirin_kernel_release/kernel/block/hisi-blk-busy-idle-notify.c:42:3
	adrp	x0, .L.str.1
.Ltmp40:
	adrp	x1, .L__func__.hisi_blk_busy_idle_notify_handler
.Ltmp41:
	add	x0, x0, :lo12:.L.str.1
	add	x1, x1, :lo12:.L__func__.hisi_blk_busy_idle_notify_handler
	mov	x2, x19
.Ltmp42:
	bl	printk
.Ltmp43:
	.loc	2 0 0 is_stmt 0         // /mnt/disk/jenkins/workspace/release/opensource/component_code/vendor/huawei/extra/build/build_script/kirin_kernel_release/kernel/block/hisi-blk-busy-idle-notify.c:0:0
	mov	w22, wzr
	b	.LBB1_13
.Ltmp44:
.LBB1_15:
	//DEBUG_VALUE: hisi_blk_busy_idle_notify_handler:handler_result <- $w22
	//DEBUG_VALUE: hisi_blk_busy_idle_notify_handler:ret <- $w24
	//DEBUG_VALUE: hisi_blk_busy_idle_notify_handler:notify_start_ktime <- $x20
	//DEBUG_VALUE: hisi_blk_busy_idle_notify_handler:notify_nb <- [DW_OP_constu 72, DW_OP_minus, DW_OP_stack_value] $x23
	//DEBUG_VALUE: hisi_blk_busy_idle_notify_handler:nb <- $x23
	//DEBUG_VALUE: hisi_blk_busy_idle_notify_handler:event_node <- $x19
	.loc	2 89 3 is_stmt 1        // /mnt/disk/jenkins/workspace/release/opensource/component_code/vendor/huawei/extra/build/build_script/kirin_kernel_release/kernel/block/hisi-blk-busy-idle-notify.c:89:3
	bl	ktime_get
	mov	x9, #13531
	movk	x9, #55222, lsl #16
	movk	x9, #56962, lsl #32
	sub	x8, x0, x20
	movk	x9, #17179, lsl #48
.Ltmp45:
	//DEBUG_VALUE: ktime_divns:div <- 1000000
	//DEBUG_VALUE: ktime_divns:kt <- $x8
	//DEBUG_VALUE: ktime_to_ms:kt <- $x8
	.loc	45 169 12               // /mnt/disk/jenkins/workspace/release/opensource/component_code/vendor/huawei/extra/build/build_script/kirin_kernel_release/kernel/include/linux/ktime.h:169:12
	smulh	x8, x8, x9
.Ltmp46:
	asr	x9, x8, #18
.Ltmp47:
	.loc	2 89 3                  // /mnt/disk/jenkins/workspace/release/opensource/component_code/vendor/huawei/extra/build/build_script/kirin_kernel_release/kernel/block/hisi-blk-busy-idle-notify.c:89:3
	adrp	x0, .L.str.2
	adrp	x1, .L__func__.hisi_blk_busy_idle_notify_handler
.Ltmp48:
	.loc	45 169 12               // /mnt/disk/jenkins/workspace/release/opensource/component_code/vendor/huawei/extra/build/build_script/kirin_kernel_release/kernel/include/linux/ktime.h:169:12
	add	x3, x9, x8, lsr #63
.Ltmp49:
	.loc	2 89 3                  // /mnt/disk/jenkins/workspace/release/opensource/component_code/vendor/huawei/extra/build/build_script/kirin_kernel_release/kernel/block/hisi-blk-busy-idle-notify.c:89:3
	add	x0, x0, :lo12:.L.str.2
	add	x1, x1, :lo12:.L__func__.hisi_blk_busy_idle_notify_handler
	mov	x2, x19
	bl	printk
.Ltmp50:
	.loc	2 94 6                  // /mnt/disk/jenkins/workspace/release/opensource/component_code/vendor/huawei/extra/build/build_script/kirin_kernel_release/kernel/block/hisi-blk-busy-idle-notify.c:94:6
	cmp	w24, #2                 // =2
	b.eq	.LBB1_12
	b	.LBB1_13
.Ltmp51:
.Lfunc_end1:
	.size	hisi_blk_busy_idle_notify_handler, .Lfunc_end1-hisi_blk_busy_idle_notify_handler
	.cfi_endproc
                                        // -- End function
	.section	.text.hisi_blk_idle_notify_work,"ax",@progbits
	.hidden	hisi_blk_idle_notify_work // -- Begin function hisi_blk_idle_notify_work
	.globl	hisi_blk_idle_notify_work
	.p2align	2
	.type	hisi_blk_idle_notify_work,@function
hisi_blk_idle_notify_work:              // @hisi_blk_idle_notify_work
.Lfunc_begin2:
	.loc	2 244 0                 // /mnt/disk/jenkins/workspace/release/opensource/component_code/vendor/huawei/extra/build/build_script/kirin_kernel_release/kernel/block/hisi-blk-busy-idle-notify.c:244:0
	.cfi_startproc
// %bb.0:
	str	x21, [sp, #-48]!        // 8-byte Folded Spill
	stp	x20, x19, [sp, #16]     // 16-byte Folded Spill
	stp	x29, x30, [sp, #32]     // 16-byte Folded Spill
	add	x29, sp, #32            // =32
	.cfi_def_cfa w29, 16
	.cfi_offset w30, -8
	.cfi_offset w29, -16
	.cfi_offset w19, -24
	.cfi_offset w20, -32
	.cfi_offset w21, -48
	//DEBUG_VALUE: hisi_blk_idle_notify_work:work <- $x0
.Ltmp52:
	//DEBUG_VALUE: __mptr <- $x0
	mov	x19, x0
.Ltmp53:
	//DEBUG_VALUE: __mptr <- $x19
	//DEBUG_VALUE: hisi_blk_idle_notify_work:blk_idle <- $x19
	//DEBUG_VALUE: __write_once_size:p <- [DW_OP_plus_uconst 208, DW_OP_stack_value] $x19
	//DEBUG_VALUE: __read_once_size:p <- [DW_OP_plus_uconst 208, DW_OP_stack_value] $x19
	//DEBUG_VALUE: __mptr <- $x19
	//DEBUG_VALUE: hisi_blk_idle_notify_work:work <- $x19
	.loc	2 249 3 prologue_end    // /mnt/disk/jenkins/workspace/release/opensource/component_code/vendor/huawei/extra/build/build_script/kirin_kernel_release/kernel/block/hisi-blk-busy-idle-notify.c:249:3
	sub	x0, x0, #88             // =88
.Ltmp54:
	//DEBUG_VALUE: hisi_blk_idle_notify_work:blk_lld <- $x0
	.loc	2 250 28                // /mnt/disk/jenkins/workspace/release/opensource/component_code/vendor/huawei/extra/build/build_script/kirin_kernel_release/kernel/block/hisi-blk-busy-idle-notify.c:250:28
	bl	hisi_blk_get_queue_by_lld
.Ltmp55:
	.loc	2 252 16                // /mnt/disk/jenkins/workspace/release/opensource/component_code/vendor/huawei/extra/build/build_script/kirin_kernel_release/kernel/block/hisi-blk-busy-idle-notify.c:252:16
	ldrb	w8, [x19, #-8]!
.Ltmp56:
	.loc	2 250 28                // /mnt/disk/jenkins/workspace/release/opensource/component_code/vendor/huawei/extra/build/build_script/kirin_kernel_release/kernel/block/hisi-blk-busy-idle-notify.c:250:28
	mov	x20, x0
.Ltmp57:
	//DEBUG_VALUE: hisi_blk_idle_notify_work:q <- $x20
	.loc	2 252 6                 // /mnt/disk/jenkins/workspace/release/opensource/component_code/vendor/huawei/extra/build/build_script/kirin_kernel_release/kernel/block/hisi-blk-busy-idle-notify.c:252:6
	cbz	w8, .LBB2_2
.Ltmp58:
// %bb.1:
	//DEBUG_VALUE: hisi_blk_idle_notify_work:q <- $x20
	//DEBUG_VALUE: __write_once_size:res <- undef
	//DEBUG_VALUE: __write_once_size:size <- 4
	.file	137 "/mnt/disk/jenkins/workspace/release/opensource/component_code/vendor/huawei/extra/build/build_script/kirin_kernel_release/kernel/include/linux/compiler.h"
	.loc	137 212 31              // /mnt/disk/jenkins/workspace/release/opensource/component_code/vendor/huawei/extra/build/build_script/kirin_kernel_release/kernel/include/linux/compiler.h:212:31
	str	wzr, [x19, #208]
.Ltmp59:
.LBB2_2:
	//DEBUG_VALUE: hisi_blk_idle_notify_work:q <- $x20
	.loc	2 255 24                // /mnt/disk/jenkins/workspace/release/opensource/component_code/vendor/huawei/extra/build/build_script/kirin_kernel_release/kernel/block/hisi-blk-busy-idle-notify.c:255:24
	add	x21, x19, #216          // =216
	.loc	2 255 2 is_stmt 0       // /mnt/disk/jenkins/workspace/release/opensource/component_code/vendor/huawei/extra/build/build_script/kirin_kernel_release/kernel/block/hisi-blk-busy-idle-notify.c:255:2
	mov	x0, x21
	bl	mutex_lock
.Ltmp60:
	//DEBUG_VALUE: __read_once_size:size <- 4
	//DEBUG_VALUE: __read_once_size:res <- undef
	.loc	137 186 2 is_stmt 1     // /mnt/disk/jenkins/workspace/release/opensource/component_code/vendor/huawei/extra/build/build_script/kirin_kernel_release/kernel/include/linux/compiler.h:186:2
	ldr	w8, [x19, #208]
.Ltmp61:
	.loc	2 256 46                // /mnt/disk/jenkins/workspace/release/opensource/component_code/vendor/huawei/extra/build/build_script/kirin_kernel_release/kernel/block/hisi-blk-busy-idle-notify.c:256:46
	cbnz	w8, .LBB2_7
.Ltmp62:
// %bb.3:
	//DEBUG_VALUE: hisi_blk_idle_notify_work:q <- $x20
	.loc	2 257 14                // /mnt/disk/jenkins/workspace/release/opensource/component_code/vendor/huawei/extra/build/build_script/kirin_kernel_release/kernel/block/hisi-blk-busy-idle-notify.c:257:14
	ldr	w8, [x19, #280]
.Ltmp63:
	.loc	2 256 6                 // /mnt/disk/jenkins/workspace/release/opensource/component_code/vendor/huawei/extra/build/build_script/kirin_kernel_release/kernel/block/hisi-blk-busy-idle-notify.c:256:6
	cmp	w8, #1                  // =1
	b.eq	.LBB2_7
.Ltmp64:
// %bb.4:
	//DEBUG_VALUE: hisi_blk_idle_notify_work:q <- $x20
	.loc	2 259 29                // /mnt/disk/jenkins/workspace/release/opensource/component_code/vendor/huawei/extra/build/build_script/kirin_kernel_release/kernel/block/hisi-blk-busy-idle-notify.c:259:29
	ldr	x8, [x19, #320]
	orr	w9, wzr, #0x1
	.loc	2 258 24                // /mnt/disk/jenkins/workspace/release/opensource/component_code/vendor/huawei/extra/build/build_script/kirin_kernel_release/kernel/block/hisi-blk-busy-idle-notify.c:258:24
	str	w9, [x19, #280]
	.loc	2 259 29                // /mnt/disk/jenkins/workspace/release/opensource/component_code/vendor/huawei/extra/build/build_script/kirin_kernel_release/kernel/block/hisi-blk-busy-idle-notify.c:259:29
	add	x8, x8, #1              // =1
	str	x8, [x19, #320]
	.loc	2 260 31                // /mnt/disk/jenkins/workspace/release/opensource/component_code/vendor/huawei/extra/build/build_script/kirin_kernel_release/kernel/block/hisi-blk-busy-idle-notify.c:260:31
	bl	ktime_get
.Ltmp65:
	.loc	2 261 17                // /mnt/disk/jenkins/workspace/release/opensource/component_code/vendor/huawei/extra/build/build_script/kirin_kernel_release/kernel/block/hisi-blk-busy-idle-notify.c:261:17
	ldr	x8, [x19, #296]
.Ltmp66:
	.loc	2 260 29                // /mnt/disk/jenkins/workspace/release/opensource/component_code/vendor/huawei/extra/build/build_script/kirin_kernel_release/kernel/block/hisi-blk-busy-idle-notify.c:260:29
	str	x0, [x19, #288]
	.loc	2 261 7                 // /mnt/disk/jenkins/workspace/release/opensource/component_code/vendor/huawei/extra/build/build_script/kirin_kernel_release/kernel/block/hisi-blk-busy-idle-notify.c:261:7
	cbz	x8, .LBB2_6
.Ltmp67:
// %bb.5:
	//DEBUG_VALUE: hisi_blk_idle_notify_work:q <- $x20
	.loc	2 263 5                 // /mnt/disk/jenkins/workspace/release/opensource/component_code/vendor/huawei/extra/build/build_script/kirin_kernel_release/kernel/block/hisi-blk-busy-idle-notify.c:263:5
	ldr	x9, [x19, #304]
	sub	x8, x0, x8
	add	x8, x8, x9
	.loc	2 262 31                // /mnt/disk/jenkins/workspace/release/opensource/component_code/vendor/huawei/extra/build/build_script/kirin_kernel_release/kernel/block/hisi-blk-busy-idle-notify.c:262:31
	str	x8, [x19, #304]
.Ltmp68:
.LBB2_6:
	//DEBUG_VALUE: hisi_blk_idle_notify_work:q <- $x20
	.loc	2 267 43                // /mnt/disk/jenkins/workspace/release/opensource/component_code/vendor/huawei/extra/build/build_script/kirin_kernel_release/kernel/block/hisi-blk-busy-idle-notify.c:267:43
	add	x0, x19, #128           // =128
	.loc	2 267 3 is_stmt 0       // /mnt/disk/jenkins/workspace/release/opensource/component_code/vendor/huawei/extra/build/build_script/kirin_kernel_release/kernel/block/hisi-blk-busy-idle-notify.c:267:3
	orr	w1, wzr, #0x1
	mov	x2, x20
	bl	blocking_notifier_call_chain
.Ltmp69:
.LBB2_7:
	//DEBUG_VALUE: hisi_blk_idle_notify_work:q <- $x20
	.loc	2 270 2 is_stmt 1       // /mnt/disk/jenkins/workspace/release/opensource/component_code/vendor/huawei/extra/build/build_script/kirin_kernel_release/kernel/block/hisi-blk-busy-idle-notify.c:270:2
	mov	x0, x21
	bl	mutex_unlock
	.loc	2 278 1                 // /mnt/disk/jenkins/workspace/release/opensource/component_code/vendor/huawei/extra/build/build_script/kirin_kernel_release/kernel/block/hisi-blk-busy-idle-notify.c:278:1
	ldp	x29, x30, [sp, #32]     // 16-byte Folded Reload
	ldp	x20, x19, [sp, #16]     // 16-byte Folded Reload
.Ltmp70:
	ldr	x21, [sp], #48          // 8-byte Folded Reload
	ret
.Ltmp71:
.Lfunc_end2:
	.size	hisi_blk_idle_notify_work, .Lfunc_end2-hisi_blk_idle_notify_work
	.cfi_endproc
                                        // -- End function
	.section	.text.blk_lld_idle_notify,"ax",@progbits
	.hidden	blk_lld_idle_notify     // -- Begin function blk_lld_idle_notify
	.globl	blk_lld_idle_notify
	.p2align	2
	.type	blk_lld_idle_notify,@function
blk_lld_idle_notify:                    // @blk_lld_idle_notify
.Lfunc_begin3:
	.loc	2 281 0                 // /mnt/disk/jenkins/workspace/release/opensource/component_code/vendor/huawei/extra/build/build_script/kirin_kernel_release/kernel/block/hisi-blk-busy-idle-notify.c:281:0
	.cfi_startproc
// %bb.0:
	//DEBUG_VALUE: blk_lld_idle_notify:lld <- $x0
	//DEBUG_VALUE: blk_lld_idle_notify:lld <- $x0
	.loc	2 282 6 prologue_end    // /mnt/disk/jenkins/workspace/release/opensource/component_code/vendor/huawei/extra/build/build_script/kirin_kernel_release/kernel/block/hisi-blk-busy-idle-notify.c:282:6
	ldr	w8, [x0]
.Ltmp72:
	.loc	2 282 6 is_stmt 0       // /mnt/disk/jenkins/workspace/release/opensource/component_code/vendor/huawei/extra/build/build_script/kirin_kernel_release/kernel/block/hisi-blk-busy-idle-notify.c:282:6
	cmp	w8, #122                // =122
	b.ne	.LBB3_2
.Ltmp73:
// %bb.1:
	//DEBUG_VALUE: blk_lld_idle_notify:lld <- $x0
	stp	x20, x19, [sp, #-32]!   // 16-byte Folded Spill
	stp	x29, x30, [sp, #16]     // 16-byte Folded Spill
	add	x29, sp, #16            // =16
	.cfi_def_cfa w29, 16
	.cfi_offset w30, -8
	.cfi_offset w29, -16
	.cfi_offset w19, -24
	.cfi_offset w20, -32
.Ltmp74:
	.loc	2 283 22 is_stmt 1      // /mnt/disk/jenkins/workspace/release/opensource/component_code/vendor/huawei/extra/build/build_script/kirin_kernel_release/kernel/block/hisi-blk-busy-idle-notify.c:283:22
	adrp	x8, blk_idle_notify_workqueue
	ldr	x19, [x8, :lo12:blk_idle_notify_workqueue]
	.loc	2 285 35                // /mnt/disk/jenkins/workspace/release/opensource/component_code/vendor/huawei/extra/build/build_script/kirin_kernel_release/kernel/block/hisi-blk-busy-idle-notify.c:285:35
	ldr	w8, [x0, #184]
	.loc	2 284 19                // /mnt/disk/jenkins/workspace/release/opensource/component_code/vendor/huawei/extra/build/build_script/kirin_kernel_release/kernel/block/hisi-blk-busy-idle-notify.c:284:19
	add	x20, x0, #88            // =88
.Ltmp75:
	//DEBUG_VALUE: msecs_to_jiffies:m <- $w8
	.loc	136 370 10              // /mnt/disk/jenkins/workspace/release/opensource/component_code/vendor/huawei/extra/build/build_script/kirin_kernel_release/kernel/include/linux/jiffies.h:370:10
	mov	w0, w8
.Ltmp76:
	bl	__msecs_to_jiffies
.Ltmp77:
	mov	x3, x0
.Ltmp78:
	//DEBUG_VALUE: queue_delayed_work:delay <- $x3
	//DEBUG_VALUE: queue_delayed_work:dwork <- $x20
	//DEBUG_VALUE: queue_delayed_work:wq <- $x19
	.loc	22 506 9                // /mnt/disk/jenkins/workspace/release/opensource/component_code/vendor/huawei/extra/build/build_script/kirin_kernel_release/kernel/include/linux/workqueue.h:506:9
	orr	w0, wzr, #0x8
	mov	x1, x19
	mov	x2, x20
	bl	queue_delayed_work_on
.Ltmp79:
	.loc	22 0 9 is_stmt 0        // /mnt/disk/jenkins/workspace/release/opensource/component_code/vendor/huawei/extra/build/build_script/kirin_kernel_release/kernel/include/linux/workqueue.h:0:9
	ldp	x29, x30, [sp, #16]     // 16-byte Folded Reload
	ldp	x20, x19, [sp], #32     // 16-byte Folded Reload
.Ltmp80:
.LBB3_2:
	.loc	2 286 1 is_stmt 1       // /mnt/disk/jenkins/workspace/release/opensource/component_code/vendor/huawei/extra/build/build_script/kirin_kernel_release/kernel/block/hisi-blk-busy-idle-notify.c:286:1
	ret
.Ltmp81:
.Lfunc_end3:
	.size	blk_lld_idle_notify, .Lfunc_end3-blk_lld_idle_notify
	.cfi_endproc
                                        // -- End function
	.section	.text.hisi_blk_busy_idle_check_bio,"ax",@progbits
	.hidden	hisi_blk_busy_idle_check_bio // -- Begin function hisi_blk_busy_idle_check_bio
	.globl	hisi_blk_busy_idle_check_bio
	.p2align	2
	.type	hisi_blk_busy_idle_check_bio,@function
hisi_blk_busy_idle_check_bio:           // @hisi_blk_busy_idle_check_bio
.Lfunc_begin4:
	.loc	2 444 0                 // /mnt/disk/jenkins/workspace/release/opensource/component_code/vendor/huawei/extra/build/build_script/kirin_kernel_release/kernel/block/hisi-blk-busy-idle-notify.c:444:0
	.cfi_startproc
// %bb.0:
	stp	x22, x21, [sp, #-48]!   // 16-byte Folded Spill
	stp	x20, x19, [sp, #16]     // 16-byte Folded Spill
	stp	x29, x30, [sp, #32]     // 16-byte Folded Spill
	add	x29, sp, #32            // =32
	.cfi_def_cfa w29, 16
	.cfi_offset w30, -8
	.cfi_offset w29, -16
	.cfi_offset w19, -24
	.cfi_offset w20, -32
	.cfi_offset w21, -40
	.cfi_offset w22, -48
	//DEBUG_VALUE: hisi_blk_busy_idle_check_bio:q <- $x0
	//DEBUG_VALUE: hisi_blk_busy_idle_check_bio:bio <- $x1
.Ltmp82:
	//DEBUG_VALUE: hisi_blk_add_bio_to_counted_list:bio <- $x1
	//DEBUG_VALUE: blk_busy_count:q <- $x0
	mov	x21, x1
.Ltmp83:
	//DEBUG_VALUE: hisi_blk_add_bio_to_counted_list:bio <- $x21
	mov	x20, x0
.Ltmp84:
	//DEBUG_VALUE: blk_busy_count:q <- $x20
	//DEBUG_VALUE: hisi_blk_busy_idle_check_bio:bio <- $x21
	//DEBUG_VALUE: hisi_blk_busy_idle_check_bio:q <- $x20
	.loc	2 445 28 prologue_end   // /mnt/disk/jenkins/workspace/release/opensource/component_code/vendor/huawei/extra/build/build_script/kirin_kernel_release/kernel/block/hisi-blk-busy-idle-notify.c:445:28
	bl	hisi_blk_get_lld
.Ltmp85:
	.loc	2 449 6                 // /mnt/disk/jenkins/workspace/release/opensource/component_code/vendor/huawei/extra/build/build_script/kirin_kernel_release/kernel/block/hisi-blk-busy-idle-notify.c:449:6
	ldrb	w8, [x21, #136]
.Ltmp86:
	.loc	2 447 18                // /mnt/disk/jenkins/workspace/release/opensource/component_code/vendor/huawei/extra/build/build_script/kirin_kernel_release/kernel/block/hisi-blk-busy-idle-notify.c:447:18
	str	x20, [x21, #88]
	.loc	2 449 6                 // /mnt/disk/jenkins/workspace/release/opensource/component_code/vendor/huawei/extra/build/build_script/kirin_kernel_release/kernel/block/hisi-blk-busy-idle-notify.c:449:6
	tbnz	w8, #0, .LBB4_4
.Ltmp87:
// %bb.1:
	//DEBUG_VALUE: hisi_blk_busy_idle_check_bio:q <- $x20
	//DEBUG_VALUE: hisi_blk_busy_idle_check_bio:bio <- $x21
	//DEBUG_VALUE: blk_busy_count:q <- $x20
	//DEBUG_VALUE: hisi_blk_add_bio_to_counted_list:bio <- $x21
	.loc	2 451 28                // /mnt/disk/jenkins/workspace/release/opensource/component_code/vendor/huawei/extra/build/build_script/kirin_kernel_release/kernel/block/hisi-blk-busy-idle-notify.c:451:28
	orr	w8, w8, #0x1
	strb	w8, [x21, #136]
.Ltmp88:
	//DEBUG_VALUE: atomic_add:i <- 1
	.file	138 "/mnt/disk/jenkins/workspace/release/opensource/component_code/vendor/huawei/extra/build/build_script/kirin_kernel_release/kernel/arch/arm64/include/asm/atomic_ll_sc.h"
	.loc	138 113 1               // /mnt/disk/jenkins/workspace/release/opensource/component_code/vendor/huawei/extra/build/build_script/kirin_kernel_release/kernel/arch/arm64/include/asm/atomic_ll_sc.h:113:1
	add	x8, x0, #408            // =408
	//APP
	// atomic_add
	prfm	pstl1strm, [x8]
1:	ldxr	w9, [x8]
	add	w9, w9, #1
	stxr	w10, w9, [x8]
	cbnz	w10, 1b
	//NO_APP
.Ltmp89:
	.file	139 "/mnt/disk/jenkins/workspace/release/opensource/component_code/vendor/huawei/extra/build/build_script/kirin_kernel_release/kernel/include/linux/spinlock.h"
	.loc	139 306 16              // /mnt/disk/jenkins/workspace/release/opensource/component_code/vendor/huawei/extra/build/build_script/kirin_kernel_release/kernel/include/linux/spinlock.h:306:16
	add	x22, x0, #448           // =448
.Ltmp90:
	.loc	2 0 0 is_stmt 0         // /mnt/disk/jenkins/workspace/release/opensource/component_code/vendor/huawei/extra/build/build_script/kirin_kernel_release/kernel/block/hisi-blk-busy-idle-notify.c:0:0
	mov	x19, x0
.Ltmp91:
	//DEBUG_VALUE: atomic_add:v <- [DW_OP_plus_uconst 288, DW_OP_stack_value] $x19
	//DEBUG_VALUE: blk_busy_count:blk_idle <- [DW_OP_plus_uconst 80, DW_OP_stack_value] $x19
	//DEBUG_VALUE: blk_busy_count:lld <- $x19
	//DEBUG_VALUE: spin_unlock_irqrestore:lock <- [DW_OP_plus_uconst 448, DW_OP_stack_value] $x19
	//DEBUG_VALUE: spinlock_check:lock <- [DW_OP_plus_uconst 448, DW_OP_stack_value] $x19
	//DEBUG_VALUE: atomic_add:v <- [DW_OP_plus_uconst 408, DW_OP_stack_value] $x19
	//DEBUG_VALUE: hisi_blk_add_bio_to_counted_list:lld <- $x19
	//DEBUG_VALUE: hisi_blk_busy_idle_check_bio:lld <- $x19
	.loc	2 387 2 is_stmt 1       // /mnt/disk/jenkins/workspace/release/opensource/component_code/vendor/huawei/extra/build/build_script/kirin_kernel_release/kernel/block/hisi-blk-busy-idle-notify.c:387:2
	mov	x0, x22
	bl	_raw_spin_lock_irqsave
.Ltmp92:
	.file	140 "/mnt/disk/jenkins/workspace/release/opensource/component_code/vendor/huawei/extra/build/build_script/kirin_kernel_release/kernel/include/linux/list.h"
	.loc	140 93 24               // /mnt/disk/jenkins/workspace/release/opensource/component_code/vendor/huawei/extra/build/build_script/kirin_kernel_release/kernel/include/linux/list.h:93:24
	ldr	x9, [x19, #424]
.Ltmp93:
	.loc	2 387 2                 // /mnt/disk/jenkins/workspace/release/opensource/component_code/vendor/huawei/extra/build/build_script/kirin_kernel_release/kernel/block/hisi-blk-busy-idle-notify.c:387:2
	mov	x1, x0
.Ltmp94:
	//DEBUG_VALUE: hisi_blk_add_bio_to_counted_list:flags <- $x1
	.loc	2 388 22                // /mnt/disk/jenkins/workspace/release/opensource/component_code/vendor/huawei/extra/build/build_script/kirin_kernel_release/kernel/block/hisi-blk-busy-idle-notify.c:388:22
	add	x8, x21, #288           // =288
.Ltmp95:
	//DEBUG_VALUE: list_add_tail:new <- $x8
	.loc	2 388 56 is_stmt 0      // /mnt/disk/jenkins/workspace/release/opensource/component_code/vendor/huawei/extra/build/build_script/kirin_kernel_release/kernel/block/hisi-blk-busy-idle-notify.c:388:56
	add	x10, x19, #416          // =416
.Ltmp96:
	//DEBUG_VALUE: list_add_tail:head <- $x10
	//DEBUG_VALUE: __list_add:next <- $x10
	//DEBUG_VALUE: __list_add:prev <- $x9
	//DEBUG_VALUE: __list_add:new <- $x8
	.loc	139 372 2 is_stmt 1     // /mnt/disk/jenkins/workspace/release/opensource/component_code/vendor/huawei/extra/build/build_script/kirin_kernel_release/kernel/include/linux/spinlock.h:372:2
	mov	x0, x22
.Ltmp97:
	.loc	140 63 13               // /mnt/disk/jenkins/workspace/release/opensource/component_code/vendor/huawei/extra/build/build_script/kirin_kernel_release/kernel/include/linux/list.h:63:13
	str	x8, [x19, #424]
	//DEBUG_VALUE: list_add_tail:new <- $x8
	.loc	140 64 12               // /mnt/disk/jenkins/workspace/release/opensource/component_code/vendor/huawei/extra/build/build_script/kirin_kernel_release/kernel/include/linux/list.h:64:12
	stp	x10, x9, [x21, #288]
.Ltmp98:
	//DEBUG_VALUE: __write_once_size:res <- undef
	//DEBUG_VALUE: __write_once_size:p <- $x9
	//DEBUG_VALUE: __write_once_size:size <- 8
	.loc	137 213 31              // /mnt/disk/jenkins/workspace/release/opensource/component_code/vendor/huawei/extra/build/build_script/kirin_kernel_release/kernel/include/linux/compiler.h:213:31
	str	x8, [x9]
.Ltmp99:
	//DEBUG_VALUE: spin_unlock_irqrestore:flags <- $x1
	.loc	139 372 2               // /mnt/disk/jenkins/workspace/release/opensource/component_code/vendor/huawei/extra/build/build_script/kirin_kernel_release/kernel/include/linux/spinlock.h:372:2
	bl	_raw_spin_unlock_irqrestore
.Ltmp100:
	.loc	2 350 6                 // /mnt/disk/jenkins/workspace/release/opensource/component_code/vendor/huawei/extra/build/build_script/kirin_kernel_release/kernel/block/hisi-blk-busy-idle-notify.c:350:6
	ldrb	w8, [x19, #24]
	tbz	w8, #4, .LBB4_4
.Ltmp101:
// %bb.2:
	//DEBUG_VALUE: hisi_blk_busy_idle_check_bio:lld <- $x19
	//DEBUG_VALUE: blk_busy_count:lld <- $x19
	//DEBUG_VALUE: blk_busy_count:blk_idle <- [DW_OP_plus_uconst 80, DW_OP_stack_value] $x19
	//DEBUG_VALUE: hisi_blk_busy_idle_check_bio:q <- $x20
	//DEBUG_VALUE: hisi_blk_busy_idle_check_bio:bio <- $x21
	//DEBUG_VALUE: blk_busy_count:q <- $x20
	//DEBUG_VALUE: __read_once_size:res <- undef
	//DEBUG_VALUE: __read_once_size:size <- 4
	//DEBUG_VALUE: __read_once_size:p <- [DW_OP_plus_uconst 288, DW_OP_stack_value] $x19
	.loc	137 186 2               // /mnt/disk/jenkins/workspace/release/opensource/component_code/vendor/huawei/extra/build/build_script/kirin_kernel_release/kernel/include/linux/compiler.h:186:2
	ldr	w8, [x19, #288]
.Ltmp102:
	.loc	2 353 6                 // /mnt/disk/jenkins/workspace/release/opensource/component_code/vendor/huawei/extra/build/build_script/kirin_kernel_release/kernel/block/hisi-blk-busy-idle-notify.c:353:6
	cbz	w8, .LBB4_5
.Ltmp103:
.LBB4_3:
	//DEBUG_VALUE: hisi_blk_busy_idle_check_bio:lld <- $x19
	//DEBUG_VALUE: blk_busy_count:lld <- $x19
	//DEBUG_VALUE: blk_busy_count:blk_idle <- [DW_OP_plus_uconst 80, DW_OP_stack_value] $x19
	//DEBUG_VALUE: hisi_blk_busy_idle_check_bio:q <- $x20
	//DEBUG_VALUE: blk_busy_count:q <- $x20
	//DEBUG_VALUE: atomic_add:i <- 1
	.loc	138 113 1               // /mnt/disk/jenkins/workspace/release/opensource/component_code/vendor/huawei/extra/build/build_script/kirin_kernel_release/kernel/arch/arm64/include/asm/atomic_ll_sc.h:113:1
	add	x8, x19, #288           // =288
	//APP
	// atomic_add
	prfm	pstl1strm, [x8]
1:	ldxr	w9, [x8]
	add	w9, w9, #1
	stxr	w10, w9, [x8]
	cbnz	w10, 1b
	//NO_APP
.Ltmp104:
.LBB4_4:
	//DEBUG_VALUE: hisi_blk_busy_idle_check_bio:q <- $x20
	.loc	2 454 1                 // /mnt/disk/jenkins/workspace/release/opensource/component_code/vendor/huawei/extra/build/build_script/kirin_kernel_release/kernel/block/hisi-blk-busy-idle-notify.c:454:1
	ldp	x29, x30, [sp, #32]     // 16-byte Folded Reload
	ldp	x20, x19, [sp, #16]     // 16-byte Folded Reload
.Ltmp105:
	ldp	x22, x21, [sp], #48     // 16-byte Folded Reload
	ret
.LBB4_5:
.Ltmp106:
	//DEBUG_VALUE: hisi_blk_busy_idle_check_bio:lld <- $x19
	//DEBUG_VALUE: blk_busy_count:lld <- $x19
	//DEBUG_VALUE: blk_busy_count:blk_idle <- [DW_OP_plus_uconst 80, DW_OP_stack_value] $x19
	//DEBUG_VALUE: hisi_blk_busy_idle_check_bio:q <- $x20
	//DEBUG_VALUE: hisi_blk_busy_idle_check_bio:bio <- $x21
	//DEBUG_VALUE: blk_busy_count:q <- $x20
	.loc	2 354 25                // /mnt/disk/jenkins/workspace/release/opensource/component_code/vendor/huawei/extra/build/build_script/kirin_kernel_release/kernel/block/hisi-blk-busy-idle-notify.c:354:25
	add	x21, x19, #296          // =296
.Ltmp107:
	.loc	2 354 3 is_stmt 0       // /mnt/disk/jenkins/workspace/release/opensource/component_code/vendor/huawei/extra/build/build_script/kirin_kernel_release/kernel/block/hisi-blk-busy-idle-notify.c:354:3
	mov	x0, x21
	bl	mutex_lock
	.loc	2 355 34 is_stmt 1      // /mnt/disk/jenkins/workspace/release/opensource/component_code/vendor/huawei/extra/build/build_script/kirin_kernel_release/kernel/block/hisi-blk-busy-idle-notify.c:355:34
	add	x0, x19, #88            // =88
	.loc	2 355 3 is_stmt 0       // /mnt/disk/jenkins/workspace/release/opensource/component_code/vendor/huawei/extra/build/build_script/kirin_kernel_release/kernel/block/hisi-blk-busy-idle-notify.c:355:3
	bl	cancel_delayed_work
.Ltmp108:
	.loc	2 359 17 is_stmt 1      // /mnt/disk/jenkins/workspace/release/opensource/component_code/vendor/huawei/extra/build/build_script/kirin_kernel_release/kernel/block/hisi-blk-busy-idle-notify.c:359:17
	ldr	w8, [x19, #360]
.Ltmp109:
	.loc	2 359 7 is_stmt 0       // /mnt/disk/jenkins/workspace/release/opensource/component_code/vendor/huawei/extra/build/build_script/kirin_kernel_release/kernel/block/hisi-blk-busy-idle-notify.c:359:7
	cmp	w8, #1                  // =1
	b.ne	.LBB4_9
.Ltmp110:
// %bb.6:
	//DEBUG_VALUE: hisi_blk_busy_idle_check_bio:lld <- $x19
	//DEBUG_VALUE: blk_busy_count:lld <- $x19
	//DEBUG_VALUE: blk_busy_count:blk_idle <- [DW_OP_plus_uconst 80, DW_OP_stack_value] $x19
	//DEBUG_VALUE: hisi_blk_busy_idle_check_bio:q <- $x20
	//DEBUG_VALUE: blk_busy_count:q <- $x20
	.loc	2 361 25 is_stmt 1      // /mnt/disk/jenkins/workspace/release/opensource/component_code/vendor/huawei/extra/build/build_script/kirin_kernel_release/kernel/block/hisi-blk-busy-idle-notify.c:361:25
	str	wzr, [x19, #360]
	.loc	2 362 32                // /mnt/disk/jenkins/workspace/release/opensource/component_code/vendor/huawei/extra/build/build_script/kirin_kernel_release/kernel/block/hisi-blk-busy-idle-notify.c:362:32
	bl	ktime_get
.Ltmp111:
	.loc	2 366 8                 // /mnt/disk/jenkins/workspace/release/opensource/component_code/vendor/huawei/extra/build/build_script/kirin_kernel_release/kernel/block/hisi-blk-busy-idle-notify.c:366:8
	ldr	x8, [x19, #368]
.Ltmp112:
	.loc	2 362 30                // /mnt/disk/jenkins/workspace/release/opensource/component_code/vendor/huawei/extra/build/build_script/kirin_kernel_release/kernel/block/hisi-blk-busy-idle-notify.c:362:30
	str	x0, [x19, #376]
	.loc	2 366 8                 // /mnt/disk/jenkins/workspace/release/opensource/component_code/vendor/huawei/extra/build/build_script/kirin_kernel_release/kernel/block/hisi-blk-busy-idle-notify.c:366:8
	cbz	x8, .LBB4_8
.Ltmp113:
// %bb.7:
	//DEBUG_VALUE: hisi_blk_busy_idle_check_bio:lld <- $x19
	//DEBUG_VALUE: blk_busy_count:lld <- $x19
	//DEBUG_VALUE: blk_busy_count:blk_idle <- [DW_OP_plus_uconst 80, DW_OP_stack_value] $x19
	//DEBUG_VALUE: hisi_blk_busy_idle_check_bio:q <- $x20
	//DEBUG_VALUE: blk_busy_count:q <- $x20
	.loc	2 367 34                // /mnt/disk/jenkins/workspace/release/opensource/component_code/vendor/huawei/extra/build/build_script/kirin_kernel_release/kernel/block/hisi-blk-busy-idle-notify.c:367:34
	ldr	x9, [x19, #392]
	sub	x8, x0, x8
	add	x8, x8, x9
	.loc	2 367 32 is_stmt 0      // /mnt/disk/jenkins/workspace/release/opensource/component_code/vendor/huawei/extra/build/build_script/kirin_kernel_release/kernel/block/hisi-blk-busy-idle-notify.c:367:32
	str	x8, [x19, #392]
.Ltmp114:
.LBB4_8:
	//DEBUG_VALUE: hisi_blk_busy_idle_check_bio:lld <- $x19
	//DEBUG_VALUE: blk_busy_count:lld <- $x19
	//DEBUG_VALUE: blk_busy_count:blk_idle <- [DW_OP_plus_uconst 80, DW_OP_stack_value] $x19
	//DEBUG_VALUE: hisi_blk_busy_idle_check_bio:q <- $x20
	//DEBUG_VALUE: blk_busy_count:q <- $x20
	.loc	2 373 16 is_stmt 1      // /mnt/disk/jenkins/workspace/release/opensource/component_code/vendor/huawei/extra/build/build_script/kirin_kernel_release/kernel/block/hisi-blk-busy-idle-notify.c:373:16
	add	x0, x19, #208           // =208
	.loc	2 372 4                 // /mnt/disk/jenkins/workspace/release/opensource/component_code/vendor/huawei/extra/build/build_script/kirin_kernel_release/kernel/block/hisi-blk-busy-idle-notify.c:372:4
	mov	x1, xzr
	mov	x2, x20
	bl	blocking_notifier_call_chain
.Ltmp115:
.LBB4_9:
	//DEBUG_VALUE: hisi_blk_busy_idle_check_bio:lld <- $x19
	//DEBUG_VALUE: blk_busy_count:lld <- $x19
	//DEBUG_VALUE: blk_busy_count:blk_idle <- [DW_OP_plus_uconst 80, DW_OP_stack_value] $x19
	//DEBUG_VALUE: hisi_blk_busy_idle_check_bio:q <- $x20
	//DEBUG_VALUE: blk_busy_count:q <- $x20
	.loc	2 376 3                 // /mnt/disk/jenkins/workspace/release/opensource/component_code/vendor/huawei/extra/build/build_script/kirin_kernel_release/kernel/block/hisi-blk-busy-idle-notify.c:376:3
	mov	x0, x21
	bl	mutex_unlock
	b	.LBB4_3
.Ltmp116:
.Lfunc_end4:
	.size	hisi_blk_busy_idle_check_bio, .Lfunc_end4-hisi_blk_busy_idle_check_bio
	.cfi_endproc
                                        // -- End function
	.section	.text.hisi_blk_busy_idle_check_request_bio,"ax",@progbits
	.hidden	hisi_blk_busy_idle_check_request_bio // -- Begin function hisi_blk_busy_idle_check_request_bio
	.globl	hisi_blk_busy_idle_check_request_bio
	.p2align	2
	.type	hisi_blk_busy_idle_check_request_bio,@function
hisi_blk_busy_idle_check_request_bio:   // @hisi_blk_busy_idle_check_request_bio
.Lfunc_begin5:
	.loc	2 461 0                 // /mnt/disk/jenkins/workspace/release/opensource/component_code/vendor/huawei/extra/build/build_script/kirin_kernel_release/kernel/block/hisi-blk-busy-idle-notify.c:461:0
	.cfi_startproc
// %bb.0:
	stp	x20, x19, [sp, #-32]!   // 16-byte Folded Spill
	stp	x29, x30, [sp, #16]     // 16-byte Folded Spill
	add	x29, sp, #16            // =16
	.cfi_def_cfa w29, 16
	.cfi_offset w30, -8
	.cfi_offset w29, -16
	.cfi_offset w19, -24
	.cfi_offset w20, -32
	//DEBUG_VALUE: hisi_blk_busy_idle_check_request_bio:q <- $x0
	//DEBUG_VALUE: hisi_blk_busy_idle_check_request_bio:rq <- $x1
	//DEBUG_VALUE: hisi_blk_busy_idle_check_request_bio:rq <- $x1
.Ltmp117:
	.loc	2 462 24 prologue_end   // /mnt/disk/jenkins/workspace/release/opensource/component_code/vendor/huawei/extra/build/build_script/kirin_kernel_release/kernel/block/hisi-blk-busy-idle-notify.c:462:24
	ldr	x19, [x1, #120]
.Ltmp118:
	//DEBUG_VALUE: hisi_blk_busy_idle_check_request_bio:bio <- $x19
	.loc	2 464 6                 // /mnt/disk/jenkins/workspace/release/opensource/component_code/vendor/huawei/extra/build/build_script/kirin_kernel_release/kernel/block/hisi-blk-busy-idle-notify.c:464:6
	cbz	x19, .LBB5_4
.Ltmp119:
// %bb.1:
	//DEBUG_VALUE: hisi_blk_busy_idle_check_request_bio:bio <- $x19
	//DEBUG_VALUE: hisi_blk_busy_idle_check_request_bio:rq <- $x1
	//DEBUG_VALUE: hisi_blk_busy_idle_check_request_bio:q <- $x0
	.loc	2 0 6 is_stmt 0         // /mnt/disk/jenkins/workspace/release/opensource/component_code/vendor/huawei/extra/build/build_script/kirin_kernel_release/kernel/block/hisi-blk-busy-idle-notify.c:0:6
	mov	x20, x0
.Ltmp120:
	//DEBUG_VALUE: hisi_blk_busy_idle_check_request_bio:q <- $x20
.LBB5_2:                                // =>This Inner Loop Header: Depth=1
	//DEBUG_VALUE: hisi_blk_busy_idle_check_request_bio:q <- $x20
	//DEBUG_VALUE: hisi_blk_busy_idle_check_request_bio:bio <- $x19
	//DEBUG_VALUE: hisi_blk_busy_idle_check_request_bio:rq <- $x1
	//DEBUG_VALUE: hisi_blk_busy_idle_check_request_bio:bio <- $x19
	.loc	2 466 4 is_stmt 1       // /mnt/disk/jenkins/workspace/release/opensource/component_code/vendor/huawei/extra/build/build_script/kirin_kernel_release/kernel/block/hisi-blk-busy-idle-notify.c:466:4
	mov	x0, x20
	mov	x1, x19
.Ltmp121:
	bl	hisi_blk_busy_idle_check_bio
	.loc	2 467 15                // /mnt/disk/jenkins/workspace/release/opensource/component_code/vendor/huawei/extra/build/build_script/kirin_kernel_release/kernel/block/hisi-blk-busy-idle-notify.c:467:15
	ldr	x19, [x19]
.Ltmp122:
	//DEBUG_VALUE: hisi_blk_busy_idle_check_request_bio:bio <- $x19
	.loc	2 468 3                 // /mnt/disk/jenkins/workspace/release/opensource/component_code/vendor/huawei/extra/build/build_script/kirin_kernel_release/kernel/block/hisi-blk-busy-idle-notify.c:468:3
	cbnz	x19, .LBB5_2
.Ltmp123:
// %bb.3:
	//DEBUG_VALUE: hisi_blk_busy_idle_check_request_bio:q <- $x20
	//DEBUG_VALUE: hisi_blk_busy_idle_check_request_bio:bio <- $x19
	.loc	2 0 3 is_stmt 0         // /mnt/disk/jenkins/workspace/release/opensource/component_code/vendor/huawei/extra/build/build_script/kirin_kernel_release/kernel/block/hisi-blk-busy-idle-notify.c:0:3
	orr	w0, wzr, #0x1
	b	.LBB5_5
.Ltmp124:
.LBB5_4:
	//DEBUG_VALUE: hisi_blk_busy_idle_check_request_bio:bio <- $x19
	//DEBUG_VALUE: hisi_blk_busy_idle_check_request_bio:rq <- $x1
	//DEBUG_VALUE: hisi_blk_busy_idle_check_request_bio:q <- $x0
	mov	w0, wzr
.Ltmp125:
.LBB5_5:
	//DEBUG_VALUE: hisi_blk_busy_idle_check_request_bio:bio <- $x19
	.loc	2 472 1 is_stmt 1       // /mnt/disk/jenkins/workspace/release/opensource/component_code/vendor/huawei/extra/build/build_script/kirin_kernel_release/kernel/block/hisi-blk-busy-idle-notify.c:472:1
	ldp	x29, x30, [sp, #16]     // 16-byte Folded Reload
	ldp	x20, x19, [sp], #32     // 16-byte Folded Reload
.Ltmp126:
	ret
.Ltmp127:
.Lfunc_end5:
	.size	hisi_blk_busy_idle_check_request_bio, .Lfunc_end5-hisi_blk_busy_idle_check_request_bio
	.cfi_endproc
                                        // -- End function
	.section	.text.hisi_blk_busy_idle_end_rq,"ax",@progbits
	.hidden	hisi_blk_busy_idle_end_rq // -- Begin function hisi_blk_busy_idle_end_rq
	.globl	hisi_blk_busy_idle_end_rq
	.p2align	2
	.type	hisi_blk_busy_idle_end_rq,@function
hisi_blk_busy_idle_end_rq:              // @hisi_blk_busy_idle_end_rq
.Lfunc_begin6:
	.loc	2 475 0                 // /mnt/disk/jenkins/workspace/release/opensource/component_code/vendor/huawei/extra/build/build_script/kirin_kernel_release/kernel/block/hisi-blk-busy-idle-notify.c:475:0
	.cfi_startproc
// %bb.0:
	stp	x22, x21, [sp, #-48]!   // 16-byte Folded Spill
	stp	x20, x19, [sp, #16]     // 16-byte Folded Spill
	stp	x29, x30, [sp, #32]     // 16-byte Folded Spill
	add	x29, sp, #32            // =32
	.cfi_def_cfa w29, 16
	.cfi_offset w30, -8
	.cfi_offset w29, -16
	.cfi_offset w19, -24
	.cfi_offset w20, -32
	.cfi_offset w21, -40
	.cfi_offset w22, -48
	//DEBUG_VALUE: hisi_blk_busy_idle_end_rq:rq <- $x0
	//DEBUG_VALUE: hisi_blk_busy_idle_end_rq:error <- $w1
.Ltmp128:
	//DEBUG_VALUE: hisi_blk_remove_rq_from_counted_list:rq <- $x0
	mov	x19, x0
.Ltmp129:
	//DEBUG_VALUE: hisi_blk_busy_idle_end_rq:rq <- $x19
	.loc	2 476 49 prologue_end   // /mnt/disk/jenkins/workspace/release/opensource/component_code/vendor/huawei/extra/build/build_script/kirin_kernel_release/kernel/block/hisi-blk-busy-idle-notify.c:476:49
	ldr	x0, [x0, #64]
.Ltmp130:
	.loc	2 0 49 is_stmt 0        // /mnt/disk/jenkins/workspace/release/opensource/component_code/vendor/huawei/extra/build/build_script/kirin_kernel_release/kernel/block/hisi-blk-busy-idle-notify.c:0:49
	mov	w20, w1
.Ltmp131:
	//DEBUG_VALUE: hisi_blk_busy_idle_end_rq:error <- $w20
	.loc	2 476 28                // /mnt/disk/jenkins/workspace/release/opensource/component_code/vendor/huawei/extra/build/build_script/kirin_kernel_release/kernel/block/hisi-blk-busy-idle-notify.c:476:28
	bl	hisi_blk_get_lld
.Ltmp132:
	.loc	138 114 1 is_stmt 1     // /mnt/disk/jenkins/workspace/release/opensource/component_code/vendor/huawei/extra/build/build_script/kirin_kernel_release/kernel/arch/arm64/include/asm/atomic_ll_sc.h:114:1
	add	x8, x0, #412            // =412
	//APP
	// atomic_sub
	prfm	pstl1strm, [x8]
1:	ldxr	w9, [x8]
	sub	w9, w9, #1
	stxr	w10, w9, [x8]
	cbnz	w10, 1b
	//NO_APP
.Ltmp133:
	//DEBUG_VALUE: spinlock_check:lock <- [DW_OP_plus_uconst 448, DW_OP_stack_value] $x21
	.loc	139 306 16              // /mnt/disk/jenkins/workspace/release/opensource/component_code/vendor/huawei/extra/build/build_script/kirin_kernel_release/kernel/include/linux/spinlock.h:306:16
	add	x22, x0, #448           // =448
.Ltmp134:
	.loc	2 476 28                // /mnt/disk/jenkins/workspace/release/opensource/component_code/vendor/huawei/extra/build/build_script/kirin_kernel_release/kernel/block/hisi-blk-busy-idle-notify.c:476:28
	mov	x21, x0
.Ltmp135:
	//DEBUG_VALUE: atomic_sub:i <- 1
	//DEBUG_VALUE: atomic_sub:v <- [DW_OP_plus_uconst 412, DW_OP_stack_value] $x21
	//DEBUG_VALUE: hisi_blk_remove_rq_from_counted_list:lld <- $x21
	//DEBUG_VALUE: hisi_blk_busy_idle_end_rq:lld <- $x21
	//DEBUG_VALUE: atomic_sub_return:v <- [DW_OP_plus_uconst 288, DW_OP_stack_value] $x21
	//DEBUG_VALUE: blk_lld_idle_notify:lld <- $x21
	//DEBUG_VALUE: hisi_blk_remove_rq_from_counted_list:rq <- $x19
	.loc	2 434 2                 // /mnt/disk/jenkins/workspace/release/opensource/component_code/vendor/huawei/extra/build/build_script/kirin_kernel_release/kernel/block/hisi-blk-busy-idle-notify.c:434:2
	mov	x0, x22
	bl	_raw_spin_lock_irqsave
.Ltmp136:
	.loc	140 120 20              // /mnt/disk/jenkins/workspace/release/opensource/component_code/vendor/huawei/extra/build/build_script/kirin_kernel_release/kernel/include/linux/list.h:120:20
	ldr	x8, [x19, #544]
	.loc	140 120 33 is_stmt 0    // /mnt/disk/jenkins/workspace/release/opensource/component_code/vendor/huawei/extra/build/build_script/kirin_kernel_release/kernel/include/linux/list.h:120:33
	ldr	x9, [x19, #536]
.Ltmp137:
	//DEBUG_VALUE: __write_once_size:res <- undef
	.loc	2 434 2 is_stmt 1       // /mnt/disk/jenkins/workspace/release/opensource/component_code/vendor/huawei/extra/build/build_script/kirin_kernel_release/kernel/block/hisi-blk-busy-idle-notify.c:434:2
	mov	x1, x0
.Ltmp138:
	//DEBUG_VALUE: hisi_blk_remove_rq_from_counted_list:flags <- $x1
	.loc	2 435 21                // /mnt/disk/jenkins/workspace/release/opensource/component_code/vendor/huawei/extra/build/build_script/kirin_kernel_release/kernel/block/hisi-blk-busy-idle-notify.c:435:21
	add	x10, x19, #536          // =536
.Ltmp139:
	//DEBUG_VALUE: __list_del_entry:entry <- $x10
	//DEBUG_VALUE: list_del_init:entry <- $x10
	//DEBUG_VALUE: __list_del:next <- $x9
	//DEBUG_VALUE: __list_del:prev <- $x8
	.loc	139 372 2               // /mnt/disk/jenkins/workspace/release/opensource/component_code/vendor/huawei/extra/build/build_script/kirin_kernel_release/kernel/include/linux/spinlock.h:372:2
	mov	x0, x22
.Ltmp140:
	.loc	140 105 13              // /mnt/disk/jenkins/workspace/release/opensource/component_code/vendor/huawei/extra/build/build_script/kirin_kernel_release/kernel/include/linux/list.h:105:13
	str	x8, [x9, #8]
.Ltmp141:
	//DEBUG_VALUE: __write_once_size:res <- undef
	//DEBUG_VALUE: __write_once_size:p <- $x8
	//DEBUG_VALUE: __write_once_size:size <- 8
	.loc	137 213 31              // /mnt/disk/jenkins/workspace/release/opensource/component_code/vendor/huawei/extra/build/build_script/kirin_kernel_release/kernel/include/linux/compiler.h:213:31
	str	x9, [x8]
.Ltmp142:
	//DEBUG_VALUE: __write_once_size:p <- $x10
	//DEBUG_VALUE: __write_once_size:size <- 8
	//DEBUG_VALUE: INIT_LIST_HEAD:list <- $x10
	.loc	137 213 31 is_stmt 0    // /mnt/disk/jenkins/workspace/release/opensource/component_code/vendor/huawei/extra/build/build_script/kirin_kernel_release/kernel/include/linux/compiler.h:213:31
	str	x10, [x19, #536]
.Ltmp143:
	.loc	140 29 13 is_stmt 1     // /mnt/disk/jenkins/workspace/release/opensource/component_code/vendor/huawei/extra/build/build_script/kirin_kernel_release/kernel/include/linux/list.h:29:13
	str	x10, [x19, #544]
.Ltmp144:
	//DEBUG_VALUE: spin_unlock_irqrestore:flags <- $x1
	//DEBUG_VALUE: spin_unlock_irqrestore:lock <- [DW_OP_plus_uconst 448, DW_OP_stack_value] $x21
	.loc	139 372 2               // /mnt/disk/jenkins/workspace/release/opensource/component_code/vendor/huawei/extra/build/build_script/kirin_kernel_release/kernel/include/linux/spinlock.h:372:2
	bl	_raw_spin_unlock_irqrestore
.Ltmp145:
	//DEBUG_VALUE: blk_idle_count:lld <- $x21
	//DEBUG_VALUE: blk_idle_count:blk_idle <- [DW_OP_plus_uconst 80, DW_OP_stack_value] $x21
	.loc	2 293 6                 // /mnt/disk/jenkins/workspace/release/opensource/component_code/vendor/huawei/extra/build/build_script/kirin_kernel_release/kernel/block/hisi-blk-busy-idle-notify.c:293:6
	ldrb	w8, [x21, #24]
	tbz	w8, #4, .LBB6_4
.Ltmp146:
// %bb.1:
	//DEBUG_VALUE: blk_idle_count:blk_idle <- [DW_OP_plus_uconst 80, DW_OP_stack_value] $x21
	//DEBUG_VALUE: blk_idle_count:lld <- $x21
	//DEBUG_VALUE: hisi_blk_busy_idle_end_rq:lld <- $x21
	//DEBUG_VALUE: hisi_blk_busy_idle_end_rq:error <- $w20
	//DEBUG_VALUE: hisi_blk_busy_idle_end_rq:rq <- $x19
	.loc	2 296 16                // /mnt/disk/jenkins/workspace/release/opensource/component_code/vendor/huawei/extra/build/build_script/kirin_kernel_release/kernel/block/hisi-blk-busy-idle-notify.c:296:16
	ldrb	w8, [x21, #80]
.Ltmp147:
	.loc	2 296 6 is_stmt 0       // /mnt/disk/jenkins/workspace/release/opensource/component_code/vendor/huawei/extra/build/build_script/kirin_kernel_release/kernel/block/hisi-blk-busy-idle-notify.c:296:6
	cbnz	w8, .LBB6_4
.Ltmp148:
// %bb.2:
	//DEBUG_VALUE: blk_idle_count:blk_idle <- [DW_OP_plus_uconst 80, DW_OP_stack_value] $x21
	//DEBUG_VALUE: blk_idle_count:lld <- $x21
	//DEBUG_VALUE: hisi_blk_busy_idle_end_rq:lld <- $x21
	//DEBUG_VALUE: hisi_blk_busy_idle_end_rq:error <- $w20
	//DEBUG_VALUE: hisi_blk_busy_idle_end_rq:rq <- $x19
	//DEBUG_VALUE: __read_once_size:res <- undef
	//DEBUG_VALUE: __read_once_size:size <- 4
	//DEBUG_VALUE: __read_once_size:p <- [DW_OP_plus_uconst 288, DW_OP_stack_value] $x21
	.loc	137 186 2 is_stmt 1     // /mnt/disk/jenkins/workspace/release/opensource/component_code/vendor/huawei/extra/build/build_script/kirin_kernel_release/kernel/include/linux/compiler.h:186:2
	ldr	w8, [x21, #288]
.Ltmp149:
	.loc	2 298 6                 // /mnt/disk/jenkins/workspace/release/opensource/component_code/vendor/huawei/extra/build/build_script/kirin_kernel_release/kernel/block/hisi-blk-busy-idle-notify.c:298:6
	cbz	w8, .LBB6_7
.Ltmp150:
// %bb.3:
	//DEBUG_VALUE: blk_idle_count:blk_idle <- [DW_OP_plus_uconst 80, DW_OP_stack_value] $x21
	//DEBUG_VALUE: blk_idle_count:lld <- $x21
	//DEBUG_VALUE: hisi_blk_busy_idle_end_rq:lld <- $x21
	//DEBUG_VALUE: hisi_blk_busy_idle_end_rq:error <- $w20
	//DEBUG_VALUE: hisi_blk_busy_idle_end_rq:rq <- $x19
	//DEBUG_VALUE: atomic_sub_return:i <- 1
	.loc	138 114 1               // /mnt/disk/jenkins/workspace/release/opensource/component_code/vendor/huawei/extra/build/build_script/kirin_kernel_release/kernel/arch/arm64/include/asm/atomic_ll_sc.h:114:1
	add	x8, x21, #288           // =288
	//APP
	// atomic_sub_return
	prfm	pstl1strm, [x8]
1:	ldxr	w9, [x8]
	sub	w9, w9, #1
	stlxr	w10, w9, [x8]
	cbnz	w10, 1b
	dmb ish
	//NO_APP
.Ltmp151:
	//DEBUG_VALUE: atomic_sub_return:result <- $w9
	.loc	2 307 6                 // /mnt/disk/jenkins/workspace/release/opensource/component_code/vendor/huawei/extra/build/build_script/kirin_kernel_release/kernel/block/hisi-blk-busy-idle-notify.c:307:6
	cbz	w9, .LBB6_8
.Ltmp152:
.LBB6_4:
	//DEBUG_VALUE: hisi_blk_busy_idle_end_rq:lld <- $x21
	//DEBUG_VALUE: hisi_blk_busy_idle_end_rq:error <- $w20
	//DEBUG_VALUE: hisi_blk_busy_idle_end_rq:rq <- $x19
	.loc	2 481 19                // /mnt/disk/jenkins/workspace/release/opensource/component_code/vendor/huawei/extra/build/build_script/kirin_kernel_release/kernel/block/hisi-blk-busy-idle-notify.c:481:19
	ldr	x8, [x19, #296]
.Ltmp153:
	.loc	2 481 6 is_stmt 0       // /mnt/disk/jenkins/workspace/release/opensource/component_code/vendor/huawei/extra/build/build_script/kirin_kernel_release/kernel/block/hisi-blk-busy-idle-notify.c:481:6
	cbz	x8, .LBB6_6
.Ltmp154:
.LBB6_5:
	//DEBUG_VALUE: hisi_blk_busy_idle_end_rq:error <- $w20
	//DEBUG_VALUE: hisi_blk_busy_idle_end_rq:rq <- $x19
	//DEBUG_VALUE: hisi_blk_busy_idle_end_rq:error <- $w20
	.loc	2 482 3 is_stmt 1       // /mnt/disk/jenkins/workspace/release/opensource/component_code/vendor/huawei/extra/build/build_script/kirin_kernel_release/kernel/block/hisi-blk-busy-idle-notify.c:482:3
	mov	x0, x19
	mov	w1, w20
	blr	x8
.Ltmp155:
.LBB6_6:
	//DEBUG_VALUE: hisi_blk_busy_idle_end_rq:error <- $w20
	//DEBUG_VALUE: hisi_blk_busy_idle_end_rq:rq <- $x19
	.loc	2 483 1                 // /mnt/disk/jenkins/workspace/release/opensource/component_code/vendor/huawei/extra/build/build_script/kirin_kernel_release/kernel/block/hisi-blk-busy-idle-notify.c:483:1
	ldp	x29, x30, [sp, #32]     // 16-byte Folded Reload
	ldp	x20, x19, [sp, #16]     // 16-byte Folded Reload
.Ltmp156:
	ldp	x22, x21, [sp], #48     // 16-byte Folded Reload
	ret
.LBB6_7:
.Ltmp157:
	//DEBUG_VALUE: blk_idle_count:blk_idle <- [DW_OP_plus_uconst 80, DW_OP_stack_value] $x21
	//DEBUG_VALUE: blk_idle_count:lld <- $x21
	//DEBUG_VALUE: hisi_blk_busy_idle_end_rq:lld <- $x21
	//DEBUG_VALUE: hisi_blk_busy_idle_end_rq:error <- $w20
	//DEBUG_VALUE: hisi_blk_busy_idle_end_rq:rq <- $x19
	.loc	2 299 3                 // /mnt/disk/jenkins/workspace/release/opensource/component_code/vendor/huawei/extra/build/build_script/kirin_kernel_release/kernel/block/hisi-blk-busy-idle-notify.c:299:3
	adrp	x0, .L.str.34
	adrp	x1, .L__func__.blk_idle_count
	add	x0, x0, :lo12:.L.str.34
	add	x1, x1, :lo12:.L__func__.blk_idle_count
	bl	printk
.Ltmp158:
	.loc	2 481 19                // /mnt/disk/jenkins/workspace/release/opensource/component_code/vendor/huawei/extra/build/build_script/kirin_kernel_release/kernel/block/hisi-blk-busy-idle-notify.c:481:19
	ldr	x8, [x19, #296]
.Ltmp159:
	.loc	2 481 6 is_stmt 0       // /mnt/disk/jenkins/workspace/release/opensource/component_code/vendor/huawei/extra/build/build_script/kirin_kernel_release/kernel/block/hisi-blk-busy-idle-notify.c:481:6
	cbnz	x8, .LBB6_5
	b	.LBB6_6
.Ltmp160:
.LBB6_8:
	//DEBUG_VALUE: blk_idle_count:blk_idle <- [DW_OP_plus_uconst 80, DW_OP_stack_value] $x21
	//DEBUG_VALUE: blk_idle_count:lld <- $x21
	//DEBUG_VALUE: hisi_blk_busy_idle_end_rq:lld <- $x21
	//DEBUG_VALUE: hisi_blk_busy_idle_end_rq:error <- $w20
	//DEBUG_VALUE: hisi_blk_busy_idle_end_rq:rq <- $x19
	.loc	2 282 6 is_stmt 1       // /mnt/disk/jenkins/workspace/release/opensource/component_code/vendor/huawei/extra/build/build_script/kirin_kernel_release/kernel/block/hisi-blk-busy-idle-notify.c:282:6
	ldr	w8, [x21]
.Ltmp161:
	.loc	2 282 6 is_stmt 0       // /mnt/disk/jenkins/workspace/release/opensource/component_code/vendor/huawei/extra/build/build_script/kirin_kernel_release/kernel/block/hisi-blk-busy-idle-notify.c:282:6
	cmp	w8, #122                // =122
	b.ne	.LBB6_4
.Ltmp162:
// %bb.9:
	//DEBUG_VALUE: blk_idle_count:blk_idle <- [DW_OP_plus_uconst 80, DW_OP_stack_value] $x21
	//DEBUG_VALUE: blk_idle_count:lld <- $x21
	//DEBUG_VALUE: hisi_blk_busy_idle_end_rq:lld <- $x21
	//DEBUG_VALUE: hisi_blk_busy_idle_end_rq:error <- $w20
	//DEBUG_VALUE: hisi_blk_busy_idle_end_rq:rq <- $x19
	.loc	2 283 22 is_stmt 1      // /mnt/disk/jenkins/workspace/release/opensource/component_code/vendor/huawei/extra/build/build_script/kirin_kernel_release/kernel/block/hisi-blk-busy-idle-notify.c:283:22
	adrp	x8, blk_idle_notify_workqueue
	.loc	2 285 35                // /mnt/disk/jenkins/workspace/release/opensource/component_code/vendor/huawei/extra/build/build_script/kirin_kernel_release/kernel/block/hisi-blk-busy-idle-notify.c:285:35
	ldr	w0, [x21, #184]
	.loc	2 283 22                // /mnt/disk/jenkins/workspace/release/opensource/component_code/vendor/huawei/extra/build/build_script/kirin_kernel_release/kernel/block/hisi-blk-busy-idle-notify.c:283:22
	ldr	x22, [x8, :lo12:blk_idle_notify_workqueue]
	.loc	2 284 19                // /mnt/disk/jenkins/workspace/release/opensource/component_code/vendor/huawei/extra/build/build_script/kirin_kernel_release/kernel/block/hisi-blk-busy-idle-notify.c:284:19
	add	x21, x21, #88           // =88
.Ltmp163:
	//DEBUG_VALUE: msecs_to_jiffies:m <- $w0
	.loc	136 370 10              // /mnt/disk/jenkins/workspace/release/opensource/component_code/vendor/huawei/extra/build/build_script/kirin_kernel_release/kernel/include/linux/jiffies.h:370:10
	bl	__msecs_to_jiffies
.Ltmp164:
	mov	x3, x0
.Ltmp165:
	//DEBUG_VALUE: queue_delayed_work:delay <- $x3
	//DEBUG_VALUE: queue_delayed_work:dwork <- $x21
	//DEBUG_VALUE: queue_delayed_work:wq <- $x22
	.loc	22 506 9                // /mnt/disk/jenkins/workspace/release/opensource/component_code/vendor/huawei/extra/build/build_script/kirin_kernel_release/kernel/include/linux/workqueue.h:506:9
	orr	w0, wzr, #0x8
	mov	x1, x22
	mov	x2, x21
	bl	queue_delayed_work_on
.Ltmp166:
	.loc	2 481 19                // /mnt/disk/jenkins/workspace/release/opensource/component_code/vendor/huawei/extra/build/build_script/kirin_kernel_release/kernel/block/hisi-blk-busy-idle-notify.c:481:19
	ldr	x8, [x19, #296]
.Ltmp167:
	.loc	2 481 6 is_stmt 0       // /mnt/disk/jenkins/workspace/release/opensource/component_code/vendor/huawei/extra/build/build_script/kirin_kernel_release/kernel/block/hisi-blk-busy-idle-notify.c:481:6
	cbnz	x8, .LBB6_5
	b	.LBB6_6
.Ltmp168:
.Lfunc_end6:
	.size	hisi_blk_busy_idle_end_rq, .Lfunc_end6-hisi_blk_busy_idle_end_rq
	.cfi_endproc
                                        // -- End function
	.section	.text.hisi_blk_busy_idle_check_execute_request,"ax",@progbits
	.hidden	hisi_blk_busy_idle_check_execute_request // -- Begin function hisi_blk_busy_idle_check_execute_request
	.globl	hisi_blk_busy_idle_check_execute_request
	.p2align	2
	.type	hisi_blk_busy_idle_check_execute_request,@function
hisi_blk_busy_idle_check_execute_request: // @hisi_blk_busy_idle_check_execute_request
.Lfunc_begin7:
	.loc	2 490 0 is_stmt 1       // /mnt/disk/jenkins/workspace/release/opensource/component_code/vendor/huawei/extra/build/build_script/kirin_kernel_release/kernel/block/hisi-blk-busy-idle-notify.c:490:0
	.cfi_startproc
// %bb.0:
	str	x23, [sp, #-64]!        // 8-byte Folded Spill
	stp	x22, x21, [sp, #16]     // 16-byte Folded Spill
	stp	x20, x19, [sp, #32]     // 16-byte Folded Spill
	stp	x29, x30, [sp, #48]     // 16-byte Folded Spill
	add	x29, sp, #48            // =48
	.cfi_def_cfa w29, 16
	.cfi_offset w30, -8
	.cfi_offset w29, -16
	.cfi_offset w19, -24
	.cfi_offset w20, -32
	.cfi_offset w21, -40
	.cfi_offset w22, -48
	.cfi_offset w23, -64
	//DEBUG_VALUE: hisi_blk_busy_idle_check_execute_request:q <- $x0
	//DEBUG_VALUE: hisi_blk_busy_idle_check_execute_request:rq <- $x1
	//DEBUG_VALUE: hisi_blk_busy_idle_check_execute_request:done <- $x2
.Ltmp169:
	//DEBUG_VALUE: hisi_blk_busy_idle_check_request_bio:q <- $x0
	//DEBUG_VALUE: hisi_blk_busy_idle_check_request_bio:rq <- $x1
	//DEBUG_VALUE: hisi_blk_add_rq_to_counted_list:rq <- $x1
	//DEBUG_VALUE: blk_busy_count:q <- $x0
	.loc	2 462 24 prologue_end   // /mnt/disk/jenkins/workspace/release/opensource/component_code/vendor/huawei/extra/build/build_script/kirin_kernel_release/kernel/block/hisi-blk-busy-idle-notify.c:462:24
	ldr	x22, [x1, #120]
.Ltmp170:
	//DEBUG_VALUE: hisi_blk_busy_idle_check_request_bio:bio <- $x22
	.loc	2 0 24 is_stmt 0        // /mnt/disk/jenkins/workspace/release/opensource/component_code/vendor/huawei/extra/build/build_script/kirin_kernel_release/kernel/block/hisi-blk-busy-idle-notify.c:0:24
	mov	x19, x2
	mov	x20, x1
.Ltmp171:
	//DEBUG_VALUE: hisi_blk_add_rq_to_counted_list:rq <- $x20
	//DEBUG_VALUE: hisi_blk_busy_idle_check_request_bio:rq <- $x20
	//DEBUG_VALUE: hisi_blk_busy_idle_check_execute_request:done <- $x19
	//DEBUG_VALUE: hisi_blk_busy_idle_check_execute_request:rq <- $x20
	mov	x21, x0
.Ltmp172:
	//DEBUG_VALUE: blk_busy_count:q <- $x21
	//DEBUG_VALUE: hisi_blk_busy_idle_check_request_bio:q <- $x21
	//DEBUG_VALUE: hisi_blk_busy_idle_check_execute_request:q <- $x21
	.loc	2 464 6 is_stmt 1       // /mnt/disk/jenkins/workspace/release/opensource/component_code/vendor/huawei/extra/build/build_script/kirin_kernel_release/kernel/block/hisi-blk-busy-idle-notify.c:464:6
	cbz	x22, .LBB7_3
.Ltmp173:
.LBB7_1:                                // =>This Inner Loop Header: Depth=1
	//DEBUG_VALUE: hisi_blk_busy_idle_check_execute_request:q <- $x21
	//DEBUG_VALUE: hisi_blk_busy_idle_check_request_bio:q <- $x21
	//DEBUG_VALUE: hisi_blk_busy_idle_check_execute_request:rq <- $x20
	//DEBUG_VALUE: hisi_blk_busy_idle_check_execute_request:done <- $x19
	//DEBUG_VALUE: hisi_blk_busy_idle_check_request_bio:rq <- $x20
	//DEBUG_VALUE: hisi_blk_busy_idle_check_request_bio:bio <- $x22
	//DEBUG_VALUE: hisi_blk_busy_idle_check_request_bio:bio <- $x22
	.loc	2 466 4                 // /mnt/disk/jenkins/workspace/release/opensource/component_code/vendor/huawei/extra/build/build_script/kirin_kernel_release/kernel/block/hisi-blk-busy-idle-notify.c:466:4
	mov	x0, x21
	mov	x1, x22
	bl	hisi_blk_busy_idle_check_bio
	.loc	2 467 15                // /mnt/disk/jenkins/workspace/release/opensource/component_code/vendor/huawei/extra/build/build_script/kirin_kernel_release/kernel/block/hisi-blk-busy-idle-notify.c:467:15
	ldr	x22, [x22]
.Ltmp174:
	//DEBUG_VALUE: hisi_blk_busy_idle_check_request_bio:bio <- $x22
	.loc	2 468 3                 // /mnt/disk/jenkins/workspace/release/opensource/component_code/vendor/huawei/extra/build/build_script/kirin_kernel_release/kernel/block/hisi-blk-busy-idle-notify.c:468:3
	cbnz	x22, .LBB7_1
.Ltmp175:
// %bb.2:
	//DEBUG_VALUE: hisi_blk_busy_idle_check_execute_request:q <- $x21
	//DEBUG_VALUE: hisi_blk_busy_idle_check_execute_request:rq <- $x20
	//DEBUG_VALUE: hisi_blk_busy_idle_check_execute_request:done <- $x19
	.loc	2 499 7                 // /mnt/disk/jenkins/workspace/release/opensource/component_code/vendor/huawei/extra/build/build_script/kirin_kernel_release/kernel/block/hisi-blk-busy-idle-notify.c:499:7
	add	x8, x20, #632           // =632
	b	.LBB7_7
.Ltmp176:
.LBB7_3:
	//DEBUG_VALUE: hisi_blk_busy_idle_check_execute_request:q <- $x21
	//DEBUG_VALUE: blk_busy_count:q <- $x21
	//DEBUG_VALUE: hisi_blk_busy_idle_check_execute_request:rq <- $x20
	//DEBUG_VALUE: hisi_blk_busy_idle_check_execute_request:done <- $x19
	//DEBUG_VALUE: hisi_blk_add_rq_to_counted_list:rq <- $x20
	.loc	2 492 50                // /mnt/disk/jenkins/workspace/release/opensource/component_code/vendor/huawei/extra/build/build_script/kirin_kernel_release/kernel/block/hisi-blk-busy-idle-notify.c:492:50
	ldr	x0, [x20, #64]
	.loc	2 492 29 is_stmt 0      // /mnt/disk/jenkins/workspace/release/opensource/component_code/vendor/huawei/extra/build/build_script/kirin_kernel_release/kernel/block/hisi-blk-busy-idle-notify.c:492:29
	bl	hisi_blk_get_lld
.Ltmp177:
	.loc	138 113 1 is_stmt 1     // /mnt/disk/jenkins/workspace/release/opensource/component_code/vendor/huawei/extra/build/build_script/kirin_kernel_release/kernel/arch/arm64/include/asm/atomic_ll_sc.h:113:1
	add	x8, x0, #412            // =412
	//APP
	// atomic_add
	prfm	pstl1strm, [x8]
1:	ldxr	w9, [x8]
	add	w9, w9, #1
	stxr	w10, w9, [x8]
	cbnz	w10, 1b
	//NO_APP
.Ltmp178:
	//DEBUG_VALUE: spinlock_check:lock <- [DW_OP_plus_uconst 448, DW_OP_stack_value] $x22
	.loc	139 306 16              // /mnt/disk/jenkins/workspace/release/opensource/component_code/vendor/huawei/extra/build/build_script/kirin_kernel_release/kernel/include/linux/spinlock.h:306:16
	add	x23, x0, #448           // =448
.Ltmp179:
	.loc	2 492 29                // /mnt/disk/jenkins/workspace/release/opensource/component_code/vendor/huawei/extra/build/build_script/kirin_kernel_release/kernel/block/hisi-blk-busy-idle-notify.c:492:29
	mov	x22, x0
.Ltmp180:
	//DEBUG_VALUE: atomic_add:i <- 1
	//DEBUG_VALUE: atomic_add:v <- [DW_OP_plus_uconst 412, DW_OP_stack_value] $x22
	//DEBUG_VALUE: hisi_blk_add_rq_to_counted_list:lld <- $x22
	//DEBUG_VALUE: lld <- $x22
	//DEBUG_VALUE: atomic_add:v <- [DW_OP_plus_uconst 288, DW_OP_stack_value] $x22
	.loc	2 416 2                 // /mnt/disk/jenkins/workspace/release/opensource/component_code/vendor/huawei/extra/build/build_script/kirin_kernel_release/kernel/block/hisi-blk-busy-idle-notify.c:416:2
	mov	x0, x23
	bl	_raw_spin_lock_irqsave
.Ltmp181:
	.loc	140 93 24               // /mnt/disk/jenkins/workspace/release/opensource/component_code/vendor/huawei/extra/build/build_script/kirin_kernel_release/kernel/include/linux/list.h:93:24
	ldr	x9, [x22, #440]
.Ltmp182:
	.loc	2 416 2                 // /mnt/disk/jenkins/workspace/release/opensource/component_code/vendor/huawei/extra/build/build_script/kirin_kernel_release/kernel/block/hisi-blk-busy-idle-notify.c:416:2
	mov	x1, x0
.Ltmp183:
	//DEBUG_VALUE: hisi_blk_add_rq_to_counted_list:flags <- $x1
	.loc	2 417 21                // /mnt/disk/jenkins/workspace/release/opensource/component_code/vendor/huawei/extra/build/build_script/kirin_kernel_release/kernel/block/hisi-blk-busy-idle-notify.c:417:21
	add	x8, x20, #536           // =536
.Ltmp184:
	//DEBUG_VALUE: list_add_tail:new <- $x8
	.loc	2 417 55 is_stmt 0      // /mnt/disk/jenkins/workspace/release/opensource/component_code/vendor/huawei/extra/build/build_script/kirin_kernel_release/kernel/block/hisi-blk-busy-idle-notify.c:417:55
	add	x10, x22, #432          // =432
.Ltmp185:
	//DEBUG_VALUE: list_add_tail:head <- $x10
	//DEBUG_VALUE: __list_add:next <- $x10
	//DEBUG_VALUE: __list_add:prev <- $x9
	//DEBUG_VALUE: __list_add:new <- $x8
	.loc	139 372 2 is_stmt 1     // /mnt/disk/jenkins/workspace/release/opensource/component_code/vendor/huawei/extra/build/build_script/kirin_kernel_release/kernel/include/linux/spinlock.h:372:2
	mov	x0, x23
.Ltmp186:
	.loc	140 63 13               // /mnt/disk/jenkins/workspace/release/opensource/component_code/vendor/huawei/extra/build/build_script/kirin_kernel_release/kernel/include/linux/list.h:63:13
	str	x8, [x22, #440]
	//DEBUG_VALUE: list_add_tail:new <- $x8
	.loc	140 64 12               // /mnt/disk/jenkins/workspace/release/opensource/component_code/vendor/huawei/extra/build/build_script/kirin_kernel_release/kernel/include/linux/list.h:64:12
	str	x10, [x20, #536]
.Ltmp187:
	//DEBUG_VALUE: __write_once_size:res <- undef
	.loc	140 65 12               // /mnt/disk/jenkins/workspace/release/opensource/component_code/vendor/huawei/extra/build/build_script/kirin_kernel_release/kernel/include/linux/list.h:65:12
	str	x9, [x20, #544]
.Ltmp188:
	//DEBUG_VALUE: __write_once_size:p <- $x9
	//DEBUG_VALUE: __write_once_size:size <- 8
	.loc	137 213 31              // /mnt/disk/jenkins/workspace/release/opensource/component_code/vendor/huawei/extra/build/build_script/kirin_kernel_release/kernel/include/linux/compiler.h:213:31
	str	x8, [x9]
.Ltmp189:
	//DEBUG_VALUE: spin_unlock_irqrestore:flags <- $x1
	//DEBUG_VALUE: spin_unlock_irqrestore:lock <- [DW_OP_plus_uconst 448, DW_OP_stack_value] $x22
	.loc	139 372 2               // /mnt/disk/jenkins/workspace/release/opensource/component_code/vendor/huawei/extra/build/build_script/kirin_kernel_release/kernel/include/linux/spinlock.h:372:2
	bl	_raw_spin_unlock_irqrestore
.Ltmp190:
	//DEBUG_VALUE: blk_busy_count:lld <- $x22
	//DEBUG_VALUE: blk_busy_count:blk_idle <- [DW_OP_plus_uconst 80, DW_OP_stack_value] $x22
	.loc	2 350 6                 // /mnt/disk/jenkins/workspace/release/opensource/component_code/vendor/huawei/extra/build/build_script/kirin_kernel_release/kernel/block/hisi-blk-busy-idle-notify.c:350:6
	ldrb	w8, [x22, #24]
	tbz	w8, #4, .LBB7_6
.Ltmp191:
// %bb.4:
	//DEBUG_VALUE: blk_busy_count:blk_idle <- [DW_OP_plus_uconst 80, DW_OP_stack_value] $x22
	//DEBUG_VALUE: blk_busy_count:lld <- $x22
	//DEBUG_VALUE: lld <- $x22
	//DEBUG_VALUE: hisi_blk_busy_idle_check_execute_request:q <- $x21
	//DEBUG_VALUE: blk_busy_count:q <- $x21
	//DEBUG_VALUE: hisi_blk_busy_idle_check_execute_request:rq <- $x20
	//DEBUG_VALUE: hisi_blk_busy_idle_check_execute_request:done <- $x19
	//DEBUG_VALUE: __read_once_size:res <- undef
	//DEBUG_VALUE: __read_once_size:size <- 4
	//DEBUG_VALUE: __read_once_size:p <- [DW_OP_plus_uconst 288, DW_OP_stack_value] $x22
	.loc	137 186 2               // /mnt/disk/jenkins/workspace/release/opensource/component_code/vendor/huawei/extra/build/build_script/kirin_kernel_release/kernel/include/linux/compiler.h:186:2
	ldr	w8, [x22, #288]
.Ltmp192:
	.loc	2 353 6                 // /mnt/disk/jenkins/workspace/release/opensource/component_code/vendor/huawei/extra/build/build_script/kirin_kernel_release/kernel/block/hisi-blk-busy-idle-notify.c:353:6
	cbz	w8, .LBB7_8
.Ltmp193:
.LBB7_5:
	//DEBUG_VALUE: blk_busy_count:blk_idle <- [DW_OP_plus_uconst 80, DW_OP_stack_value] $x22
	//DEBUG_VALUE: blk_busy_count:lld <- $x22
	//DEBUG_VALUE: lld <- $x22
	//DEBUG_VALUE: hisi_blk_busy_idle_check_execute_request:q <- $x21
	//DEBUG_VALUE: blk_busy_count:q <- $x21
	//DEBUG_VALUE: hisi_blk_busy_idle_check_execute_request:rq <- $x20
	//DEBUG_VALUE: hisi_blk_busy_idle_check_execute_request:done <- $x19
	//DEBUG_VALUE: atomic_add:i <- 1
	.loc	138 113 1               // /mnt/disk/jenkins/workspace/release/opensource/component_code/vendor/huawei/extra/build/build_script/kirin_kernel_release/kernel/arch/arm64/include/asm/atomic_ll_sc.h:113:1
	add	x8, x22, #288           // =288
	//APP
	// atomic_add
	prfm	pstl1strm, [x8]
1:	ldxr	w9, [x8]
	add	w9, w9, #1
	stxr	w10, w9, [x8]
	cbnz	w10, 1b
	//NO_APP
.Ltmp194:
.LBB7_6:
	//DEBUG_VALUE: lld <- $x22
	//DEBUG_VALUE: hisi_blk_busy_idle_check_execute_request:q <- $x21
	//DEBUG_VALUE: hisi_blk_busy_idle_check_execute_request:rq <- $x20
	//DEBUG_VALUE: hisi_blk_busy_idle_check_execute_request:done <- $x19
	.loc	2 496 14                // /mnt/disk/jenkins/workspace/release/opensource/component_code/vendor/huawei/extra/build/build_script/kirin_kernel_release/kernel/block/hisi-blk-busy-idle-notify.c:496:14
	adrp	x8, __cfi_hisi_blk_busy_idle_end_rq
	add	x8, x8, :lo12:__cfi_hisi_blk_busy_idle_end_rq
	str	x8, [x20, #632]
	.loc	2 497 16                // /mnt/disk/jenkins/workspace/release/opensource/component_code/vendor/huawei/extra/build/build_script/kirin_kernel_release/kernel/block/hisi-blk-busy-idle-notify.c:497:16
	add	x8, x20, #296           // =296
.Ltmp195:
.LBB7_7:
	//DEBUG_VALUE: hisi_blk_busy_idle_check_execute_request:q <- $x21
	//DEBUG_VALUE: hisi_blk_busy_idle_check_execute_request:rq <- $x20
	//DEBUG_VALUE: hisi_blk_busy_idle_check_execute_request:done <- $x19
	.loc	2 0 0 is_stmt 0         // /mnt/disk/jenkins/workspace/release/opensource/component_code/vendor/huawei/extra/build/build_script/kirin_kernel_release/kernel/block/hisi-blk-busy-idle-notify.c:0:0
	str	x19, [x8]
.Ltmp196:
	.loc	2 501 1 is_stmt 1       // /mnt/disk/jenkins/workspace/release/opensource/component_code/vendor/huawei/extra/build/build_script/kirin_kernel_release/kernel/block/hisi-blk-busy-idle-notify.c:501:1
	ldp	x29, x30, [sp, #48]     // 16-byte Folded Reload
	ldp	x20, x19, [sp, #32]     // 16-byte Folded Reload
.Ltmp197:
	ldp	x22, x21, [sp, #16]     // 16-byte Folded Reload
.Ltmp198:
	ldr	x23, [sp], #64          // 8-byte Folded Reload
	ret
.LBB7_8:
.Ltmp199:
	//DEBUG_VALUE: blk_busy_count:blk_idle <- [DW_OP_plus_uconst 80, DW_OP_stack_value] $x22
	//DEBUG_VALUE: blk_busy_count:lld <- $x22
	//DEBUG_VALUE: lld <- $x22
	//DEBUG_VALUE: hisi_blk_busy_idle_check_execute_request:q <- $x21
	//DEBUG_VALUE: blk_busy_count:q <- $x21
	//DEBUG_VALUE: hisi_blk_busy_idle_check_execute_request:rq <- $x20
	//DEBUG_VALUE: hisi_blk_busy_idle_check_execute_request:done <- $x19
	.loc	2 354 25                // /mnt/disk/jenkins/workspace/release/opensource/component_code/vendor/huawei/extra/build/build_script/kirin_kernel_release/kernel/block/hisi-blk-busy-idle-notify.c:354:25
	add	x23, x22, #296          // =296
	.loc	2 354 3 is_stmt 0       // /mnt/disk/jenkins/workspace/release/opensource/component_code/vendor/huawei/extra/build/build_script/kirin_kernel_release/kernel/block/hisi-blk-busy-idle-notify.c:354:3
	mov	x0, x23
	bl	mutex_lock
	.loc	2 355 34 is_stmt 1      // /mnt/disk/jenkins/workspace/release/opensource/component_code/vendor/huawei/extra/build/build_script/kirin_kernel_release/kernel/block/hisi-blk-busy-idle-notify.c:355:34
	add	x0, x22, #88            // =88
	.loc	2 355 3 is_stmt 0       // /mnt/disk/jenkins/workspace/release/opensource/component_code/vendor/huawei/extra/build/build_script/kirin_kernel_release/kernel/block/hisi-blk-busy-idle-notify.c:355:3
	bl	cancel_delayed_work
.Ltmp200:
	.loc	2 359 17 is_stmt 1      // /mnt/disk/jenkins/workspace/release/opensource/component_code/vendor/huawei/extra/build/build_script/kirin_kernel_release/kernel/block/hisi-blk-busy-idle-notify.c:359:17
	ldr	w8, [x22, #360]
.Ltmp201:
	.loc	2 359 7 is_stmt 0       // /mnt/disk/jenkins/workspace/release/opensource/component_code/vendor/huawei/extra/build/build_script/kirin_kernel_release/kernel/block/hisi-blk-busy-idle-notify.c:359:7
	cmp	w8, #1                  // =1
	b.ne	.LBB7_12
.Ltmp202:
// %bb.9:
	//DEBUG_VALUE: blk_busy_count:blk_idle <- [DW_OP_plus_uconst 80, DW_OP_stack_value] $x22
	//DEBUG_VALUE: blk_busy_count:lld <- $x22
	//DEBUG_VALUE: lld <- $x22
	//DEBUG_VALUE: hisi_blk_busy_idle_check_execute_request:q <- $x21
	//DEBUG_VALUE: blk_busy_count:q <- $x21
	//DEBUG_VALUE: hisi_blk_busy_idle_check_execute_request:rq <- $x20
	//DEBUG_VALUE: hisi_blk_busy_idle_check_execute_request:done <- $x19
	.loc	2 361 25 is_stmt 1      // /mnt/disk/jenkins/workspace/release/opensource/component_code/vendor/huawei/extra/build/build_script/kirin_kernel_release/kernel/block/hisi-blk-busy-idle-notify.c:361:25
	str	wzr, [x22, #360]
	.loc	2 362 32                // /mnt/disk/jenkins/workspace/release/opensource/component_code/vendor/huawei/extra/build/build_script/kirin_kernel_release/kernel/block/hisi-blk-busy-idle-notify.c:362:32
	bl	ktime_get
.Ltmp203:
	.loc	2 366 8                 // /mnt/disk/jenkins/workspace/release/opensource/component_code/vendor/huawei/extra/build/build_script/kirin_kernel_release/kernel/block/hisi-blk-busy-idle-notify.c:366:8
	ldr	x8, [x22, #368]
.Ltmp204:
	.loc	2 362 30                // /mnt/disk/jenkins/workspace/release/opensource/component_code/vendor/huawei/extra/build/build_script/kirin_kernel_release/kernel/block/hisi-blk-busy-idle-notify.c:362:30
	str	x0, [x22, #376]
	.loc	2 366 8                 // /mnt/disk/jenkins/workspace/release/opensource/component_code/vendor/huawei/extra/build/build_script/kirin_kernel_release/kernel/block/hisi-blk-busy-idle-notify.c:366:8
	cbz	x8, .LBB7_11
.Ltmp205:
// %bb.10:
	//DEBUG_VALUE: blk_busy_count:blk_idle <- [DW_OP_plus_uconst 80, DW_OP_stack_value] $x22
	//DEBUG_VALUE: blk_busy_count:lld <- $x22
	//DEBUG_VALUE: lld <- $x22
	//DEBUG_VALUE: hisi_blk_busy_idle_check_execute_request:q <- $x21
	//DEBUG_VALUE: blk_busy_count:q <- $x21
	//DEBUG_VALUE: hisi_blk_busy_idle_check_execute_request:rq <- $x20
	//DEBUG_VALUE: hisi_blk_busy_idle_check_execute_request:done <- $x19
	.loc	2 367 34                // /mnt/disk/jenkins/workspace/release/opensource/component_code/vendor/huawei/extra/build/build_script/kirin_kernel_release/kernel/block/hisi-blk-busy-idle-notify.c:367:34
	ldr	x9, [x22, #392]
	sub	x8, x0, x8
	add	x8, x8, x9
	.loc	2 367 32 is_stmt 0      // /mnt/disk/jenkins/workspace/release/opensource/component_code/vendor/huawei/extra/build/build_script/kirin_kernel_release/kernel/block/hisi-blk-busy-idle-notify.c:367:32
	str	x8, [x22, #392]
.Ltmp206:
.LBB7_11:
	//DEBUG_VALUE: blk_busy_count:blk_idle <- [DW_OP_plus_uconst 80, DW_OP_stack_value] $x22
	//DEBUG_VALUE: blk_busy_count:lld <- $x22
	//DEBUG_VALUE: lld <- $x22
	//DEBUG_VALUE: hisi_blk_busy_idle_check_execute_request:q <- $x21
	//DEBUG_VALUE: blk_busy_count:q <- $x21
	//DEBUG_VALUE: hisi_blk_busy_idle_check_execute_request:rq <- $x20
	//DEBUG_VALUE: hisi_blk_busy_idle_check_execute_request:done <- $x19
	.loc	2 373 16 is_stmt 1      // /mnt/disk/jenkins/workspace/release/opensource/component_code/vendor/huawei/extra/build/build_script/kirin_kernel_release/kernel/block/hisi-blk-busy-idle-notify.c:373:16
	add	x0, x22, #208           // =208
	.loc	2 372 4                 // /mnt/disk/jenkins/workspace/release/opensource/component_code/vendor/huawei/extra/build/build_script/kirin_kernel_release/kernel/block/hisi-blk-busy-idle-notify.c:372:4
	mov	x1, xzr
	mov	x2, x21
	bl	blocking_notifier_call_chain
.Ltmp207:
.LBB7_12:
	//DEBUG_VALUE: blk_busy_count:blk_idle <- [DW_OP_plus_uconst 80, DW_OP_stack_value] $x22
	//DEBUG_VALUE: blk_busy_count:lld <- $x22
	//DEBUG_VALUE: lld <- $x22
	//DEBUG_VALUE: hisi_blk_busy_idle_check_execute_request:q <- $x21
	//DEBUG_VALUE: blk_busy_count:q <- $x21
	//DEBUG_VALUE: hisi_blk_busy_idle_check_execute_request:rq <- $x20
	//DEBUG_VALUE: hisi_blk_busy_idle_check_execute_request:done <- $x19
	.loc	2 376 3                 // /mnt/disk/jenkins/workspace/release/opensource/component_code/vendor/huawei/extra/build/build_script/kirin_kernel_release/kernel/block/hisi-blk-busy-idle-notify.c:376:3
	mov	x0, x23
	bl	mutex_unlock
	b	.LBB7_5
.Ltmp208:
.Lfunc_end7:
	.size	hisi_blk_busy_idle_check_execute_request, .Lfunc_end7-hisi_blk_busy_idle_check_execute_request
	.cfi_endproc
                                        // -- End function
	.section	.text.hisi_blk_busy_idle_check_bio_endio,"ax",@progbits
	.hidden	hisi_blk_busy_idle_check_bio_endio // -- Begin function hisi_blk_busy_idle_check_bio_endio
	.globl	hisi_blk_busy_idle_check_bio_endio
	.p2align	2
	.type	hisi_blk_busy_idle_check_bio_endio,@function
hisi_blk_busy_idle_check_bio_endio:     // @hisi_blk_busy_idle_check_bio_endio
.Lfunc_begin8:
	.loc	2 507 0                 // /mnt/disk/jenkins/workspace/release/opensource/component_code/vendor/huawei/extra/build/build_script/kirin_kernel_release/kernel/block/hisi-blk-busy-idle-notify.c:507:0
	.cfi_startproc
// %bb.0:
	str	x21, [sp, #-48]!        // 8-byte Folded Spill
	stp	x20, x19, [sp, #16]     // 16-byte Folded Spill
	stp	x29, x30, [sp, #32]     // 16-byte Folded Spill
	add	x29, sp, #32            // =32
	.cfi_def_cfa w29, 16
	.cfi_offset w30, -8
	.cfi_offset w29, -16
	.cfi_offset w19, -24
	.cfi_offset w20, -32
	.cfi_offset w21, -48
	//DEBUG_VALUE: hisi_blk_busy_idle_check_bio_endio:bio <- $x0
.Ltmp209:
	//DEBUG_VALUE: hisi_blk_remove_bio_from_counted_list:bio <- $x0
	.loc	2 509 8 prologue_end    // /mnt/disk/jenkins/workspace/release/opensource/component_code/vendor/huawei/extra/build/build_script/kirin_kernel_release/kernel/block/hisi-blk-busy-idle-notify.c:509:8
	ldr	x8, [x0, #8]
	.loc	2 509 3 is_stmt 0       // /mnt/disk/jenkins/workspace/release/opensource/component_code/vendor/huawei/extra/build/build_script/kirin_kernel_release/kernel/block/hisi-blk-busy-idle-notify.c:509:3
	add	x9, x0, #88             // =88
	mov	x20, x0
.Ltmp210:
	//DEBUG_VALUE: hisi_blk_remove_bio_from_counted_list:bio <- $x20
	//DEBUG_VALUE: hisi_blk_busy_idle_check_bio_endio:bio <- $x20
	add	x10, x8, #1112          // =1112
	cmp	x8, #0                  // =0
	csel	x8, x9, x10, eq
	ldr	x0, [x8]
.Ltmp211:
	//DEBUG_VALUE: hisi_blk_busy_idle_check_bio_endio:q <- $x0
	.loc	2 510 28 is_stmt 1      // /mnt/disk/jenkins/workspace/release/opensource/component_code/vendor/huawei/extra/build/build_script/kirin_kernel_release/kernel/block/hisi-blk-busy-idle-notify.c:510:28
	bl	hisi_blk_get_lld
.Ltmp212:
	.loc	2 512 6                 // /mnt/disk/jenkins/workspace/release/opensource/component_code/vendor/huawei/extra/build/build_script/kirin_kernel_release/kernel/block/hisi-blk-busy-idle-notify.c:512:6
	ldrb	w8, [x20, #136]
.Ltmp213:
	.loc	2 512 6 is_stmt 0       // /mnt/disk/jenkins/workspace/release/opensource/component_code/vendor/huawei/extra/build/build_script/kirin_kernel_release/kernel/block/hisi-blk-busy-idle-notify.c:512:6
	tbz	w8, #0, .LBB8_5
.Ltmp214:
// %bb.1:
	//DEBUG_VALUE: hisi_blk_busy_idle_check_bio_endio:bio <- $x20
	//DEBUG_VALUE: hisi_blk_remove_bio_from_counted_list:bio <- $x20
	.loc	138 114 1 is_stmt 1     // /mnt/disk/jenkins/workspace/release/opensource/component_code/vendor/huawei/extra/build/build_script/kirin_kernel_release/kernel/arch/arm64/include/asm/atomic_ll_sc.h:114:1
	add	x8, x0, #408            // =408
	//APP
	// atomic_sub
	prfm	pstl1strm, [x8]
1:	ldxr	w9, [x8]
	sub	w9, w9, #1
	stxr	w10, w9, [x8]
	cbnz	w10, 1b
	//NO_APP
.Ltmp215:
	.loc	139 306 16              // /mnt/disk/jenkins/workspace/release/opensource/component_code/vendor/huawei/extra/build/build_script/kirin_kernel_release/kernel/include/linux/spinlock.h:306:16
	add	x21, x0, #448           // =448
.Ltmp216:
	.loc	2 0 0 is_stmt 0         // /mnt/disk/jenkins/workspace/release/opensource/component_code/vendor/huawei/extra/build/build_script/kirin_kernel_release/kernel/block/hisi-blk-busy-idle-notify.c:0:0
	mov	x19, x0
.Ltmp217:
	//DEBUG_VALUE: blk_lld_idle_notify:lld <- $x19
	//DEBUG_VALUE: atomic_sub_return:v <- [DW_OP_plus_uconst 288, DW_OP_stack_value] $x19
	//DEBUG_VALUE: blk_idle_count:blk_idle <- [DW_OP_plus_uconst 80, DW_OP_stack_value] $x19
	//DEBUG_VALUE: blk_idle_count:lld <- $x19
	//DEBUG_VALUE: spin_unlock_irqrestore:lock <- [DW_OP_plus_uconst 448, DW_OP_stack_value] $x19
	//DEBUG_VALUE: spinlock_check:lock <- [DW_OP_plus_uconst 448, DW_OP_stack_value] $x19
	//DEBUG_VALUE: atomic_sub:v <- [DW_OP_plus_uconst 408, DW_OP_stack_value] $x19
	//DEBUG_VALUE: hisi_blk_remove_bio_from_counted_list:lld <- $x19
	//DEBUG_VALUE: hisi_blk_busy_idle_check_bio_endio:lld <- $x19
	//DEBUG_VALUE: atomic_sub:i <- 1
	.loc	2 405 2 is_stmt 1       // /mnt/disk/jenkins/workspace/release/opensource/component_code/vendor/huawei/extra/build/build_script/kirin_kernel_release/kernel/block/hisi-blk-busy-idle-notify.c:405:2
	mov	x0, x21
	bl	_raw_spin_lock_irqsave
.Ltmp218:
	.loc	140 120 33              // /mnt/disk/jenkins/workspace/release/opensource/component_code/vendor/huawei/extra/build/build_script/kirin_kernel_release/kernel/include/linux/list.h:120:33
	ldp	x8, x9, [x20, #288]
.Ltmp219:
	//DEBUG_VALUE: __write_once_size:p <- undef
	//DEBUG_VALUE: __write_once_size:res <- undef
	.loc	2 405 2                 // /mnt/disk/jenkins/workspace/release/opensource/component_code/vendor/huawei/extra/build/build_script/kirin_kernel_release/kernel/block/hisi-blk-busy-idle-notify.c:405:2
	mov	x1, x0
.Ltmp220:
	//DEBUG_VALUE: hisi_blk_remove_bio_from_counted_list:flags <- $x1
	.loc	2 406 22                // /mnt/disk/jenkins/workspace/release/opensource/component_code/vendor/huawei/extra/build/build_script/kirin_kernel_release/kernel/block/hisi-blk-busy-idle-notify.c:406:22
	add	x10, x20, #288          // =288
.Ltmp221:
	//DEBUG_VALUE: __write_once_size:res <- undef
	//DEBUG_VALUE: __list_del_entry:entry <- $x10
	//DEBUG_VALUE: list_del_init:entry <- $x10
	//DEBUG_VALUE: __list_del:prev <- $x9
	//DEBUG_VALUE: __list_del:next <- $x8
	.loc	139 372 2               // /mnt/disk/jenkins/workspace/release/opensource/component_code/vendor/huawei/extra/build/build_script/kirin_kernel_release/kernel/include/linux/spinlock.h:372:2
	mov	x0, x21
.Ltmp222:
	.loc	140 105 13              // /mnt/disk/jenkins/workspace/release/opensource/component_code/vendor/huawei/extra/build/build_script/kirin_kernel_release/kernel/include/linux/list.h:105:13
	str	x9, [x8, #8]
.Ltmp223:
	//DEBUG_VALUE: __write_once_size:size <- 8
	.loc	137 213 31              // /mnt/disk/jenkins/workspace/release/opensource/component_code/vendor/huawei/extra/build/build_script/kirin_kernel_release/kernel/include/linux/compiler.h:213:31
	str	x8, [x9]
.Ltmp224:
	//DEBUG_VALUE: __write_once_size:p <- $x10
	//DEBUG_VALUE: __write_once_size:size <- 8
	//DEBUG_VALUE: INIT_LIST_HEAD:list <- $x10
	.loc	137 213 31 is_stmt 0    // /mnt/disk/jenkins/workspace/release/opensource/component_code/vendor/huawei/extra/build/build_script/kirin_kernel_release/kernel/include/linux/compiler.h:213:31
	str	x10, [x20, #288]
.Ltmp225:
	.loc	140 29 13 is_stmt 1     // /mnt/disk/jenkins/workspace/release/opensource/component_code/vendor/huawei/extra/build/build_script/kirin_kernel_release/kernel/include/linux/list.h:29:13
	str	x10, [x20, #296]
.Ltmp226:
	//DEBUG_VALUE: spin_unlock_irqrestore:flags <- $x1
	.loc	139 372 2               // /mnt/disk/jenkins/workspace/release/opensource/component_code/vendor/huawei/extra/build/build_script/kirin_kernel_release/kernel/include/linux/spinlock.h:372:2
	bl	_raw_spin_unlock_irqrestore
.Ltmp227:
	.loc	2 517 28                // /mnt/disk/jenkins/workspace/release/opensource/component_code/vendor/huawei/extra/build/build_script/kirin_kernel_release/kernel/block/hisi-blk-busy-idle-notify.c:517:28
	strb	wzr, [x20, #136]
.Ltmp228:
	.loc	2 293 6                 // /mnt/disk/jenkins/workspace/release/opensource/component_code/vendor/huawei/extra/build/build_script/kirin_kernel_release/kernel/block/hisi-blk-busy-idle-notify.c:293:6
	ldrb	w8, [x19, #24]
	tbz	w8, #4, .LBB8_5
.Ltmp229:
// %bb.2:
	//DEBUG_VALUE: hisi_blk_busy_idle_check_bio_endio:lld <- $x19
	//DEBUG_VALUE: blk_idle_count:lld <- $x19
	//DEBUG_VALUE: blk_idle_count:blk_idle <- [DW_OP_plus_uconst 80, DW_OP_stack_value] $x19
	//DEBUG_VALUE: hisi_blk_busy_idle_check_bio_endio:bio <- $x20
	.loc	2 296 16                // /mnt/disk/jenkins/workspace/release/opensource/component_code/vendor/huawei/extra/build/build_script/kirin_kernel_release/kernel/block/hisi-blk-busy-idle-notify.c:296:16
	ldrb	w8, [x19, #80]
.Ltmp230:
	.loc	2 296 6 is_stmt 0       // /mnt/disk/jenkins/workspace/release/opensource/component_code/vendor/huawei/extra/build/build_script/kirin_kernel_release/kernel/block/hisi-blk-busy-idle-notify.c:296:6
	cbnz	w8, .LBB8_5
.Ltmp231:
// %bb.3:
	//DEBUG_VALUE: hisi_blk_busy_idle_check_bio_endio:lld <- $x19
	//DEBUG_VALUE: blk_idle_count:lld <- $x19
	//DEBUG_VALUE: blk_idle_count:blk_idle <- [DW_OP_plus_uconst 80, DW_OP_stack_value] $x19
	//DEBUG_VALUE: hisi_blk_busy_idle_check_bio_endio:bio <- $x20
	//DEBUG_VALUE: __read_once_size:res <- undef
	//DEBUG_VALUE: __read_once_size:size <- 4
	//DEBUG_VALUE: __read_once_size:p <- [DW_OP_plus_uconst 288, DW_OP_stack_value] $x19
	.loc	137 186 2 is_stmt 1     // /mnt/disk/jenkins/workspace/release/opensource/component_code/vendor/huawei/extra/build/build_script/kirin_kernel_release/kernel/include/linux/compiler.h:186:2
	ldr	w8, [x19, #288]
.Ltmp232:
	.loc	2 298 6                 // /mnt/disk/jenkins/workspace/release/opensource/component_code/vendor/huawei/extra/build/build_script/kirin_kernel_release/kernel/block/hisi-blk-busy-idle-notify.c:298:6
	cbz	w8, .LBB8_6
.Ltmp233:
// %bb.4:
	//DEBUG_VALUE: hisi_blk_busy_idle_check_bio_endio:lld <- $x19
	//DEBUG_VALUE: blk_idle_count:lld <- $x19
	//DEBUG_VALUE: blk_idle_count:blk_idle <- [DW_OP_plus_uconst 80, DW_OP_stack_value] $x19
	//DEBUG_VALUE: hisi_blk_busy_idle_check_bio_endio:bio <- $x20
	//DEBUG_VALUE: atomic_sub_return:i <- 1
	.loc	138 114 1               // /mnt/disk/jenkins/workspace/release/opensource/component_code/vendor/huawei/extra/build/build_script/kirin_kernel_release/kernel/arch/arm64/include/asm/atomic_ll_sc.h:114:1
	add	x8, x19, #288           // =288
	//APP
	// atomic_sub_return
	prfm	pstl1strm, [x8]
1:	ldxr	w9, [x8]
	sub	w9, w9, #1
	stlxr	w10, w9, [x8]
	cbnz	w10, 1b
	dmb ish
	//NO_APP
.Ltmp234:
	//DEBUG_VALUE: atomic_sub_return:result <- $w9
	.loc	2 307 6                 // /mnt/disk/jenkins/workspace/release/opensource/component_code/vendor/huawei/extra/build/build_script/kirin_kernel_release/kernel/block/hisi-blk-busy-idle-notify.c:307:6
	cbz	w9, .LBB8_7
.Ltmp235:
.LBB8_5:
	.loc	2 520 1                 // /mnt/disk/jenkins/workspace/release/opensource/component_code/vendor/huawei/extra/build/build_script/kirin_kernel_release/kernel/block/hisi-blk-busy-idle-notify.c:520:1
	ldp	x29, x30, [sp, #32]     // 16-byte Folded Reload
	ldp	x20, x19, [sp, #16]     // 16-byte Folded Reload
	ldr	x21, [sp], #48          // 8-byte Folded Reload
	ret
.LBB8_6:
.Ltmp236:
	//DEBUG_VALUE: hisi_blk_busy_idle_check_bio_endio:lld <- $x19
	//DEBUG_VALUE: blk_idle_count:lld <- $x19
	//DEBUG_VALUE: blk_idle_count:blk_idle <- [DW_OP_plus_uconst 80, DW_OP_stack_value] $x19
	//DEBUG_VALUE: hisi_blk_busy_idle_check_bio_endio:bio <- $x20
	.loc	2 299 3                 // /mnt/disk/jenkins/workspace/release/opensource/component_code/vendor/huawei/extra/build/build_script/kirin_kernel_release/kernel/block/hisi-blk-busy-idle-notify.c:299:3
	adrp	x0, .L.str.34
	adrp	x1, .L__func__.blk_idle_count
	add	x0, x0, :lo12:.L.str.34
	add	x1, x1, :lo12:.L__func__.blk_idle_count
	bl	printk
	b	.LBB8_5
.Ltmp237:
.LBB8_7:
	//DEBUG_VALUE: hisi_blk_busy_idle_check_bio_endio:lld <- $x19
	//DEBUG_VALUE: blk_idle_count:lld <- $x19
	//DEBUG_VALUE: blk_idle_count:blk_idle <- [DW_OP_plus_uconst 80, DW_OP_stack_value] $x19
	//DEBUG_VALUE: hisi_blk_busy_idle_check_bio_endio:bio <- $x20
	.loc	2 282 6                 // /mnt/disk/jenkins/workspace/release/opensource/component_code/vendor/huawei/extra/build/build_script/kirin_kernel_release/kernel/block/hisi-blk-busy-idle-notify.c:282:6
	ldr	w8, [x19]
.Ltmp238:
	.loc	2 282 6 is_stmt 0       // /mnt/disk/jenkins/workspace/release/opensource/component_code/vendor/huawei/extra/build/build_script/kirin_kernel_release/kernel/block/hisi-blk-busy-idle-notify.c:282:6
	cmp	w8, #122                // =122
	b.ne	.LBB8_5
.Ltmp239:
// %bb.8:
	//DEBUG_VALUE: hisi_blk_busy_idle_check_bio_endio:lld <- $x19
	//DEBUG_VALUE: blk_idle_count:lld <- $x19
	//DEBUG_VALUE: blk_idle_count:blk_idle <- [DW_OP_plus_uconst 80, DW_OP_stack_value] $x19
	//DEBUG_VALUE: hisi_blk_busy_idle_check_bio_endio:bio <- $x20
	.loc	2 283 22 is_stmt 1      // /mnt/disk/jenkins/workspace/release/opensource/component_code/vendor/huawei/extra/build/build_script/kirin_kernel_release/kernel/block/hisi-blk-busy-idle-notify.c:283:22
	adrp	x8, blk_idle_notify_workqueue
	.loc	2 285 35                // /mnt/disk/jenkins/workspace/release/opensource/component_code/vendor/huawei/extra/build/build_script/kirin_kernel_release/kernel/block/hisi-blk-busy-idle-notify.c:285:35
	ldr	w0, [x19, #184]
	.loc	2 283 22                // /mnt/disk/jenkins/workspace/release/opensource/component_code/vendor/huawei/extra/build/build_script/kirin_kernel_release/kernel/block/hisi-blk-busy-idle-notify.c:283:22
	ldr	x20, [x8, :lo12:blk_idle_notify_workqueue]
.Ltmp240:
	.loc	2 284 19                // /mnt/disk/jenkins/workspace/release/opensource/component_code/vendor/huawei/extra/build/build_script/kirin_kernel_release/kernel/block/hisi-blk-busy-idle-notify.c:284:19
	add	x19, x19, #88           // =88
.Ltmp241:
	//DEBUG_VALUE: msecs_to_jiffies:m <- $w0
	.loc	136 370 10              // /mnt/disk/jenkins/workspace/release/opensource/component_code/vendor/huawei/extra/build/build_script/kirin_kernel_release/kernel/include/linux/jiffies.h:370:10
	bl	__msecs_to_jiffies
.Ltmp242:
	mov	x3, x0
.Ltmp243:
	//DEBUG_VALUE: queue_delayed_work:delay <- $x3
	//DEBUG_VALUE: queue_delayed_work:dwork <- $x19
	//DEBUG_VALUE: queue_delayed_work:wq <- $x20
	.loc	22 506 9                // /mnt/disk/jenkins/workspace/release/opensource/component_code/vendor/huawei/extra/build/build_script/kirin_kernel_release/kernel/include/linux/workqueue.h:506:9
	orr	w0, wzr, #0x8
	mov	x1, x20
	mov	x2, x19
	bl	queue_delayed_work_on
.Ltmp244:
	.loc	22 0 9 is_stmt 0        // /mnt/disk/jenkins/workspace/release/opensource/component_code/vendor/huawei/extra/build/build_script/kirin_kernel_release/kernel/include/linux/workqueue.h:0:9
	b	.LBB8_5
.Ltmp245:
.Lfunc_end8:
	.size	hisi_blk_busy_idle_check_bio_endio, .Lfunc_end8-hisi_blk_busy_idle_check_bio_endio
	.cfi_endproc
                                        // -- End function
	.section	.text.hisi_blk_busy_idle_state_init,"ax",@progbits
	.hidden	hisi_blk_busy_idle_state_init // -- Begin function hisi_blk_busy_idle_state_init
	.globl	hisi_blk_busy_idle_state_init
	.p2align	2
	.type	hisi_blk_busy_idle_state_init,@function
hisi_blk_busy_idle_state_init:          // @hisi_blk_busy_idle_state_init
.Lfunc_begin9:
	.loc	2 523 0 is_stmt 1       // /mnt/disk/jenkins/workspace/release/opensource/component_code/vendor/huawei/extra/build/build_script/kirin_kernel_release/kernel/block/hisi-blk-busy-idle-notify.c:523:0
	.cfi_startproc
// %bb.0:
	stp	x20, x19, [sp, #-32]!   // 16-byte Folded Spill
	stp	x29, x30, [sp, #16]     // 16-byte Folded Spill
	add	x29, sp, #16            // =16
	.cfi_def_cfa w29, 16
	.cfi_offset w30, -8
	.cfi_offset w29, -16
	.cfi_offset w19, -24
	.cfi_offset w20, -32
	//DEBUG_VALUE: hisi_blk_busy_idle_state_init:blk_idle <- $x0
.Ltmp246:
	.loc	2 524 7 prologue_end    // /mnt/disk/jenkins/workspace/release/opensource/component_code/vendor/huawei/extra/build/build_script/kirin_kernel_release/kernel/block/hisi-blk-busy-idle-notify.c:524:7
	adrp	x20, blk_idle_notify_workqueue
	ldr	x8, [x20, :lo12:blk_idle_notify_workqueue]
	mov	x19, x0
.Ltmp247:
	//DEBUG_VALUE: hisi_blk_busy_idle_state_init:blk_idle <- $x19
	.loc	2 524 6 is_stmt 0       // /mnt/disk/jenkins/workspace/release/opensource/component_code/vendor/huawei/extra/build/build_script/kirin_kernel_release/kernel/block/hisi-blk-busy-idle-notify.c:524:6
	cbnz	x8, .LBB9_2
.Ltmp248:
// %bb.1:
	//DEBUG_VALUE: hisi_blk_busy_idle_state_init:blk_idle <- $x19
	.loc	2 525 31 is_stmt 1      // /mnt/disk/jenkins/workspace/release/opensource/component_code/vendor/huawei/extra/build/build_script/kirin_kernel_release/kernel/block/hisi-blk-busy-idle-notify.c:525:31
	adrp	x0, .L.str.4
	add	x0, x0, :lo12:.L.str.4
	orr	w1, wzr, #0x18
	mov	w2, wzr
	mov	x3, xzr
	mov	x4, xzr
	bl	__alloc_workqueue_key
	.loc	2 525 29 is_stmt 0      // /mnt/disk/jenkins/workspace/release/opensource/component_code/vendor/huawei/extra/build/build_script/kirin_kernel_release/kernel/block/hisi-blk-busy-idle-notify.c:525:29
	str	x0, [x20, :lo12:blk_idle_notify_workqueue]
.Ltmp249:
.LBB9_2:
	//DEBUG_VALUE: hisi_blk_busy_idle_state_init:blk_idle <- $x19
	.loc	2 0 29                  // /mnt/disk/jenkins/workspace/release/opensource/component_code/vendor/huawei/extra/build/build_script/kirin_kernel_release/kernel/block/hisi-blk-busy-idle-notify.c:0:29
	mov	x8, #68719476704
.Ltmp250:
	.loc	2 541 2 is_stmt 1       // /mnt/disk/jenkins/workspace/release/opensource/component_code/vendor/huawei/extra/build/build_script/kirin_kernel_release/kernel/block/hisi-blk-busy-idle-notify.c:541:2
	adrp	x10, __cfi_hisi_blk_idle_notify_work
	str	x8, [x19, #8]!
.Ltmp251:
	.loc	2 0 2 is_stmt 0         // /mnt/disk/jenkins/workspace/release/opensource/component_code/vendor/huawei/extra/build/build_script/kirin_kernel_release/kernel/block/hisi-blk-busy-idle-notify.c:0:2
	mov	w9, #5
	.loc	2 541 2                 // /mnt/disk/jenkins/workspace/release/opensource/component_code/vendor/huawei/extra/build/build_script/kirin_kernel_release/kernel/block/hisi-blk-busy-idle-notify.c:541:2
	add	x10, x10, :lo12:__cfi_hisi_blk_idle_notify_work
	add	x8, x19, #8             // =8
.Ltmp252:
	//DEBUG_VALUE: __write_once_size:p <- $x8
	//DEBUG_VALUE: __write_once_size:size <- 8
	//DEBUG_VALUE: __write_once_size:res <- undef
	//DEBUG_VALUE: INIT_LIST_HEAD:list <- $x8
	.loc	2 541 2                 // /mnt/disk/jenkins/workspace/release/opensource/component_code/vendor/huawei/extra/build/build_script/kirin_kernel_release/kernel/block/hisi-blk-busy-idle-notify.c:541:2
	add	x0, x19, #32            // =32
	orr	w1, wzr, #0x200000
	mov	x2, xzr
	mov	x3, xzr
.Ltmp253:
	.loc	2 529 56 is_stmt 1      // /mnt/disk/jenkins/workspace/release/opensource/component_code/vendor/huawei/extra/build/build_script/kirin_kernel_release/kernel/block/hisi-blk-busy-idle-notify.c:529:56
	stp	xzr, xzr, [x19, #304]
	stp	xzr, xzr, [x19, #288]
	str	xzr, [x19, #280]
	.loc	2 540 33                // /mnt/disk/jenkins/workspace/release/opensource/component_code/vendor/huawei/extra/build/build_script/kirin_kernel_release/kernel/block/hisi-blk-busy-idle-notify.c:540:33
	str	w9, [x19, #96]
.Ltmp254:
	.loc	137 213 31              // /mnt/disk/jenkins/workspace/release/opensource/component_code/vendor/huawei/extra/build/build_script/kirin_kernel_release/kernel/include/linux/compiler.h:213:31
	str	x8, [x19, #8]
.Ltmp255:
	.loc	140 29 13               // /mnt/disk/jenkins/workspace/release/opensource/component_code/vendor/huawei/extra/build/build_script/kirin_kernel_release/kernel/include/linux/list.h:29:13
	stp	x8, x10, [x19, #16]
.Ltmp256:
	.loc	2 541 2                 // /mnt/disk/jenkins/workspace/release/opensource/component_code/vendor/huawei/extra/build/build_script/kirin_kernel_release/kernel/block/hisi-blk-busy-idle-notify.c:541:2
	bl	init_timer_key
.Ltmp257:
	adrp	x8, delayed_work_timer_fn
.Ltmp258:
	.loc	2 544 2                 // /mnt/disk/jenkins/workspace/release/opensource/component_code/vendor/huawei/extra/build/build_script/kirin_kernel_release/kernel/block/hisi-blk-busy-idle-notify.c:544:2
	adrp	x1, .L.str.5
	adrp	x2, hisi_blk_busy_idle_state_init.__key
.Ltmp259:
	.loc	2 541 2                 // /mnt/disk/jenkins/workspace/release/opensource/component_code/vendor/huawei/extra/build/build_script/kirin_kernel_release/kernel/block/hisi-blk-busy-idle-notify.c:541:2
	add	x8, x8, :lo12:delayed_work_timer_fn
.Ltmp260:
	.loc	2 544 2                 // /mnt/disk/jenkins/workspace/release/opensource/component_code/vendor/huawei/extra/build/build_script/kirin_kernel_release/kernel/block/hisi-blk-busy-idle-notify.c:544:2
	add	x0, x19, #208           // =208
	add	x1, x1, :lo12:.L.str.5
	add	x2, x2, :lo12:hisi_blk_busy_idle_state_init.__key
.Ltmp261:
	.loc	2 541 2                 // /mnt/disk/jenkins/workspace/release/opensource/component_code/vendor/huawei/extra/build/build_script/kirin_kernel_release/kernel/block/hisi-blk-busy-idle-notify.c:541:2
	stp	x8, x19, [x19, #56]
.Ltmp262:
	//DEBUG_VALUE: __write_once_size:p <- [DW_OP_plus_uconst 200, DW_OP_stack_value] $x19
	//DEBUG_VALUE: __write_once_size:size <- 4
	//DEBUG_VALUE: __write_once_size:res <- undef
	.loc	137 212 31              // /mnt/disk/jenkins/workspace/release/opensource/component_code/vendor/huawei/extra/build/build_script/kirin_kernel_release/kernel/include/linux/compiler.h:212:31
	str	wzr, [x19, #200]
.Ltmp263:
	.loc	2 544 2                 // /mnt/disk/jenkins/workspace/release/opensource/component_code/vendor/huawei/extra/build/build_script/kirin_kernel_release/kernel/block/hisi-blk-busy-idle-notify.c:544:2
	bl	__mutex_init
.Ltmp264:
	.loc	2 546 2                 // /mnt/disk/jenkins/workspace/release/opensource/component_code/vendor/huawei/extra/build/build_script/kirin_kernel_release/kernel/block/hisi-blk-busy-idle-notify.c:546:2
	adrp	x1, .L.str.7
	adrp	x2, hisi_blk_busy_idle_state_init.__key.6
.Ltmp265:
	.loc	2 545 28                // /mnt/disk/jenkins/workspace/release/opensource/component_code/vendor/huawei/extra/build/build_script/kirin_kernel_release/kernel/block/hisi-blk-busy-idle-notify.c:545:28
	add	x8, x19, #104           // =104
.Ltmp266:
	//DEBUG_VALUE: __write_once_size:p <- $x8
	//DEBUG_VALUE: __write_once_size:size <- 8
	//DEBUG_VALUE: __write_once_size:res <- undef
	//DEBUG_VALUE: INIT_LIST_HEAD:list <- $x8
	.loc	2 546 2                 // /mnt/disk/jenkins/workspace/release/opensource/component_code/vendor/huawei/extra/build/build_script/kirin_kernel_release/kernel/block/hisi-blk-busy-idle-notify.c:546:2
	add	x0, x19, #120           // =120
	add	x1, x1, :lo12:.L.str.7
	add	x2, x2, :lo12:hisi_blk_busy_idle_state_init.__key.6
.Ltmp267:
	.loc	137 213 31              // /mnt/disk/jenkins/workspace/release/opensource/component_code/vendor/huawei/extra/build/build_script/kirin_kernel_release/kernel/include/linux/compiler.h:213:31
	str	x8, [x19, #104]
.Ltmp268:
	.loc	140 29 13               // /mnt/disk/jenkins/workspace/release/opensource/component_code/vendor/huawei/extra/build/build_script/kirin_kernel_release/kernel/include/linux/list.h:29:13
	str	x8, [x19, #112]
.Ltmp269:
	.loc	2 546 2                 // /mnt/disk/jenkins/workspace/release/opensource/component_code/vendor/huawei/extra/build/build_script/kirin_kernel_release/kernel/block/hisi-blk-busy-idle-notify.c:546:2
	bl	__init_rwsem
.Ltmp270:
	.loc	2 554 2                 // /mnt/disk/jenkins/workspace/release/opensource/component_code/vendor/huawei/extra/build/build_script/kirin_kernel_release/kernel/block/hisi-blk-busy-idle-notify.c:554:2
	adrp	x1, .L.str.9
	adrp	x2, hisi_blk_busy_idle_state_init.__key.8
	orr	w8, wzr, #0x1
.Ltmp271:
	.loc	2 552 28                // /mnt/disk/jenkins/workspace/release/opensource/component_code/vendor/huawei/extra/build/build_script/kirin_kernel_release/kernel/block/hisi-blk-busy-idle-notify.c:552:28
	add	x9, x19, #328           // =328
.Ltmp272:
	//DEBUG_VALUE: __write_once_size:res <- undef
	.loc	2 553 28                // /mnt/disk/jenkins/workspace/release/opensource/component_code/vendor/huawei/extra/build/build_script/kirin_kernel_release/kernel/block/hisi-blk-busy-idle-notify.c:553:28
	add	x10, x19, #344          // =344
.Ltmp273:
	//DEBUG_VALUE: __write_once_size:res <- undef
	.loc	2 554 2                 // /mnt/disk/jenkins/workspace/release/opensource/component_code/vendor/huawei/extra/build/build_script/kirin_kernel_release/kernel/block/hisi-blk-busy-idle-notify.c:554:2
	add	x0, x19, #360           // =360
	add	x1, x1, :lo12:.L.str.9
	add	x2, x2, :lo12:hisi_blk_busy_idle_state_init.__key.8
.Ltmp274:
	.loc	2 546 2                 // /mnt/disk/jenkins/workspace/release/opensource/component_code/vendor/huawei/extra/build/build_script/kirin_kernel_release/kernel/block/hisi-blk-busy-idle-notify.c:546:2
	str	xzr, [x19, #192]
.Ltmp275:
	.loc	2 547 23                // /mnt/disk/jenkins/workspace/release/opensource/component_code/vendor/huawei/extra/build/build_script/kirin_kernel_release/kernel/block/hisi-blk-busy-idle-notify.c:547:23
	str	w8, [x19, #272]
.Ltmp276:
	//DEBUG_VALUE: __write_once_size:p <- [DW_OP_plus_uconst 384, DW_OP_stack_value] $x19
	//DEBUG_VALUE: __write_once_size:size <- 4
	//DEBUG_VALUE: __write_once_size:res <- undef
	.loc	137 212 31              // /mnt/disk/jenkins/workspace/release/opensource/component_code/vendor/huawei/extra/build/build_script/kirin_kernel_release/kernel/include/linux/compiler.h:212:31
	str	wzr, [x19, #384]
.Ltmp277:
	//DEBUG_VALUE: __write_once_size:res <- undef
	//DEBUG_VALUE: __write_once_size:p <- [DW_OP_plus_uconst 320, DW_OP_stack_value] $x19
	//DEBUG_VALUE: __write_once_size:size <- 4
	//DEBUG_VALUE: __write_once_size:res <- undef
	.loc	137 212 31 is_stmt 0    // /mnt/disk/jenkins/workspace/release/opensource/component_code/vendor/huawei/extra/build/build_script/kirin_kernel_release/kernel/include/linux/compiler.h:212:31
	str	wzr, [x19, #320]
.Ltmp278:
	//DEBUG_VALUE: __write_once_size:p <- [DW_OP_plus_uconst 324, DW_OP_stack_value] $x19
	//DEBUG_VALUE: __write_once_size:size <- 4
	.loc	137 212 31              // /mnt/disk/jenkins/workspace/release/opensource/component_code/vendor/huawei/extra/build/build_script/kirin_kernel_release/kernel/include/linux/compiler.h:212:31
	str	wzr, [x19, #324]
.Ltmp279:
	//DEBUG_VALUE: INIT_LIST_HEAD:list <- $x9
	//DEBUG_VALUE: __write_once_size:p <- $x9
	//DEBUG_VALUE: __write_once_size:size <- 8
	.loc	137 213 31 is_stmt 1    // /mnt/disk/jenkins/workspace/release/opensource/component_code/vendor/huawei/extra/build/build_script/kirin_kernel_release/kernel/include/linux/compiler.h:213:31
	str	x9, [x19, #328]
.Ltmp280:
	.loc	140 29 13               // /mnt/disk/jenkins/workspace/release/opensource/component_code/vendor/huawei/extra/build/build_script/kirin_kernel_release/kernel/include/linux/list.h:29:13
	str	x9, [x19, #336]
.Ltmp281:
	//DEBUG_VALUE: INIT_LIST_HEAD:list <- $x10
	//DEBUG_VALUE: __write_once_size:p <- $x10
	//DEBUG_VALUE: __write_once_size:size <- 8
	.loc	137 213 31              // /mnt/disk/jenkins/workspace/release/opensource/component_code/vendor/huawei/extra/build/build_script/kirin_kernel_release/kernel/include/linux/compiler.h:213:31
	str	x10, [x19, #344]
.Ltmp282:
	.loc	140 29 13               // /mnt/disk/jenkins/workspace/release/opensource/component_code/vendor/huawei/extra/build/build_script/kirin_kernel_release/kernel/include/linux/list.h:29:13
	str	x10, [x19, #352]
.Ltmp283:
	.loc	2 554 2                 // /mnt/disk/jenkins/workspace/release/opensource/component_code/vendor/huawei/extra/build/build_script/kirin_kernel_release/kernel/block/hisi-blk-busy-idle-notify.c:554:2
	bl	__raw_spin_lock_init
.Ltmp284:
	.loc	2 555 1                 // /mnt/disk/jenkins/workspace/release/opensource/component_code/vendor/huawei/extra/build/build_script/kirin_kernel_release/kernel/block/hisi-blk-busy-idle-notify.c:555:1
	ldp	x29, x30, [sp, #16]     // 16-byte Folded Reload
	ldp	x20, x19, [sp], #32     // 16-byte Folded Reload
.Ltmp285:
	ret
.Ltmp286:
.Lfunc_end9:
	.size	hisi_blk_busy_idle_state_init, .Lfunc_end9-hisi_blk_busy_idle_state_init
	.cfi_endproc
                                        // -- End function
	.section	.text.blk_busy_idle_event_subscriber,"ax",@progbits
	.hidden	blk_busy_idle_event_subscriber // -- Begin function blk_busy_idle_event_subscriber
	.globl	blk_busy_idle_event_subscriber
	.p2align	2
	.type	blk_busy_idle_event_subscriber,@function
blk_busy_idle_event_subscriber:         // @blk_busy_idle_event_subscriber
.Lfunc_begin10:
	.loc	2 562 0                 // /mnt/disk/jenkins/workspace/release/opensource/component_code/vendor/huawei/extra/build/build_script/kirin_kernel_release/kernel/block/hisi-blk-busy-idle-notify.c:562:0
	.cfi_startproc
// %bb.0:
	str	x19, [sp, #-32]!        // 8-byte Folded Spill
	stp	x29, x30, [sp, #16]     // 16-byte Folded Spill
	add	x29, sp, #16            // =16
	.cfi_def_cfa w29, 16
	.cfi_offset w30, -8
	.cfi_offset w29, -16
	.cfi_offset w19, -32
	//DEBUG_VALUE: blk_busy_idle_event_subscriber:bi_bdev <- $x0
	//DEBUG_VALUE: blk_busy_idle_event_subscriber:bi_bdev <- $x0
	//DEBUG_VALUE: blk_busy_idle_event_subscriber:event_node <- $x1
.Ltmp287:
	//DEBUG_VALUE: bdev_get_queue:bdev <- $x0
	//DEBUG_VALUE: bdev_get_queue:bdev <- $x0
	.loc	4 1465 15 prologue_end  // /mnt/disk/jenkins/workspace/release/opensource/component_code/vendor/huawei/extra/build/build_script/kirin_kernel_release/kernel/include/linux/blkdev.h:1465:15
	ldr	x8, [x0, #160]
	mov	x19, x1
.Ltmp288:
	//DEBUG_VALUE: blk_busy_idle_event_subscriber:event_node <- $x19
	.loc	4 1465 24 is_stmt 0     // /mnt/disk/jenkins/workspace/release/opensource/component_code/vendor/huawei/extra/build/build_script/kirin_kernel_release/kernel/include/linux/blkdev.h:1465:24
	ldr	x0, [x8, #1112]
.Ltmp289:
	.loc	2 564 3 is_stmt 1       // /mnt/disk/jenkins/workspace/release/opensource/component_code/vendor/huawei/extra/build/build_script/kirin_kernel_release/kernel/block/hisi-blk-busy-idle-notify.c:564:3
	bl	hisi_blk_get_lld
	.loc	2 563 9                 // /mnt/disk/jenkins/workspace/release/opensource/component_code/vendor/huawei/extra/build/build_script/kirin_kernel_release/kernel/block/hisi-blk-busy-idle-notify.c:563:9
	mov	x1, x19
.Ltmp290:
	//DEBUG_VALUE: blk_busy_idle_event_subscriber:event_node <- $x1
	bl	hisi_blk_busy_idle_event_register
.Ltmp291:
	.loc	2 563 2 is_stmt 0       // /mnt/disk/jenkins/workspace/release/opensource/component_code/vendor/huawei/extra/build/build_script/kirin_kernel_release/kernel/block/hisi-blk-busy-idle-notify.c:563:2
	ldp	x29, x30, [sp, #16]     // 16-byte Folded Reload
	ldr	x19, [sp], #32          // 8-byte Folded Reload
	ret
.Ltmp292:
.Lfunc_end10:
	.size	blk_busy_idle_event_subscriber, .Lfunc_end10-blk_busy_idle_event_subscriber
	.cfi_endproc
                                        // -- End function
	.section	.text.hisi_blk_busy_idle_event_register,"ax",@progbits
	.p2align	2               // -- Begin function hisi_blk_busy_idle_event_register
	.type	hisi_blk_busy_idle_event_register,@function
hisi_blk_busy_idle_event_register:      // @hisi_blk_busy_idle_event_register
.Lfunc_begin11:
	.loc	2 138 0 is_stmt 1       // /mnt/disk/jenkins/workspace/release/opensource/component_code/vendor/huawei/extra/build/build_script/kirin_kernel_release/kernel/block/hisi-blk-busy-idle-notify.c:138:0
	.cfi_startproc
// %bb.0:
	str	x25, [sp, #-80]!        // 8-byte Folded Spill
	stp	x24, x23, [sp, #16]     // 16-byte Folded Spill
	stp	x22, x21, [sp, #32]     // 16-byte Folded Spill
	stp	x20, x19, [sp, #48]     // 16-byte Folded Spill
	stp	x29, x30, [sp, #64]     // 16-byte Folded Spill
	add	x29, sp, #64            // =64
	.cfi_def_cfa w29, 16
	.cfi_offset w30, -8
	.cfi_offset w29, -16
	.cfi_offset w19, -24
	.cfi_offset w20, -32
	.cfi_offset w21, -40
	.cfi_offset w22, -48
	.cfi_offset w23, -56
	.cfi_offset w24, -64
	.cfi_offset w25, -80
	//DEBUG_VALUE: hisi_blk_busy_idle_event_register:lld <- $x0
	//DEBUG_VALUE: hisi_blk_busy_idle_event_register:event_node <- $x1
.Ltmp293:
	//DEBUG_VALUE: hisi_blk_busy_idle_event_register:blk_idle <- [DW_OP_plus_uconst 80, DW_OP_stack_value] $x0
	//DEBUG_VALUE: busy_idle_find_subscribed_node:lld <- $x0
	.loc	2 145 24 prologue_end   // /mnt/disk/jenkins/workspace/release/opensource/component_code/vendor/huawei/extra/build/build_script/kirin_kernel_release/kernel/block/hisi-blk-busy-idle-notify.c:145:24
	add	x19, x0, #296           // =296
	mov	x21, x0
.Ltmp294:
	//DEBUG_VALUE: hisi_blk_busy_idle_event_register:ret <- 0
	//DEBUG_VALUE: busy_idle_find_subscribed_node:lld <- $x21
	//DEBUG_VALUE: hisi_blk_busy_idle_event_register:blk_idle <- [DW_OP_plus_uconst 80, DW_OP_stack_value] $x21
	//DEBUG_VALUE: hisi_blk_busy_idle_event_register:event_node <- $x23
	//DEBUG_VALUE: hisi_blk_busy_idle_event_register:lld <- $x21
	.loc	2 144 18                // /mnt/disk/jenkins/workspace/release/opensource/component_code/vendor/huawei/extra/build/build_script/kirin_kernel_release/kernel/block/hisi-blk-busy-idle-notify.c:144:18
	str	x0, [x1, #48]
	.loc	2 145 2                 // /mnt/disk/jenkins/workspace/release/opensource/component_code/vendor/huawei/extra/build/build_script/kirin_kernel_release/kernel/block/hisi-blk-busy-idle-notify.c:145:2
	mov	x0, x19
	mov	x23, x1
.Ltmp295:
	bl	mutex_lock
.Ltmp296:
	//DEBUG_VALUE: kmalloc:flags <- 21004480
	//DEBUG_VALUE: kmalloc:size <- 176
	//DEBUG_VALUE: kzalloc:flags <- 20971712
	//DEBUG_VALUE: kzalloc:size <- 176
	.file	141 "/mnt/disk/jenkins/workspace/release/opensource/component_code/vendor/huawei/extra/build/build_script/kirin_kernel_release/kernel/include/linux/slab.h"
	.loc	141 520 9               // /mnt/disk/jenkins/workspace/release/opensource/component_code/vendor/huawei/extra/build/build_script/kirin_kernel_release/kernel/include/linux/slab.h:520:9
	mov	w1, #32960
	mov	w0, #176
	movk	w1, #320, lsl #16
	bl	__kmalloc
.Ltmp297:
	.loc	2 147 6                 // /mnt/disk/jenkins/workspace/release/opensource/component_code/vendor/huawei/extra/build/build_script/kirin_kernel_release/kernel/block/hisi-blk-busy-idle-notify.c:147:6
	cbz	x0, .LBB11_4
.Ltmp298:
// %bb.1:
	//DEBUG_VALUE: hisi_blk_busy_idle_event_register:lld <- $x21
	//DEBUG_VALUE: hisi_blk_busy_idle_event_register:blk_idle <- [DW_OP_plus_uconst 80, DW_OP_stack_value] $x21
	//DEBUG_VALUE: busy_idle_find_subscribed_node:lld <- $x21
	.loc	2 153 32                // /mnt/disk/jenkins/workspace/release/opensource/component_code/vendor/huawei/extra/build/build_script/kirin_kernel_release/kernel/block/hisi-blk-busy-idle-notify.c:153:32
	add	x22, x0, #96            // =96
.Ltmp299:
	//DEBUG_VALUE: hisi_blk_busy_idle_event_register:event_node_cpy <- $x22
	//DEBUG_VALUE: busy_idle_find_subscribed_node:event_node <- $x22
	.loc	2 0 0 is_stmt 0         // /mnt/disk/jenkins/workspace/release/opensource/component_code/vendor/huawei/extra/build/build_script/kirin_kernel_release/kernel/block/hisi-blk-busy-idle-notify.c:0:0
	mov	x20, x0
.Ltmp300:
	//DEBUG_VALUE: __list_add:new <- $x20
	//DEBUG_VALUE: list_add_tail:new <- $x20
	//DEBUG_VALUE: hisi_blk_busy_idle_event_register:notify_nb <- $x20
	.loc	2 154 2 is_stmt 1       // /mnt/disk/jenkins/workspace/release/opensource/component_code/vendor/huawei/extra/build/build_script/kirin_kernel_release/kernel/block/hisi-blk-busy-idle-notify.c:154:2
	orr	w2, wzr, #0x20
	mov	x0, x22
	mov	x1, x23
	bl	strncpy
	.loc	2 155 64                // /mnt/disk/jenkins/workspace/release/opensource/component_code/vendor/huawei/extra/build/build_script/kirin_kernel_release/kernel/block/hisi-blk-busy-idle-notify.c:155:64
	ldp	x25, x8, [x23, #32]
	.loc	2 155 50 is_stmt 0      // /mnt/disk/jenkins/workspace/release/opensource/component_code/vendor/huawei/extra/build/build_script/kirin_kernel_release/kernel/block/hisi-blk-busy-idle-notify.c:155:50
	stp	x25, x8, [x20, #128]
.Ltmp301:
	//DEBUG_VALUE: hisi_blk_is_valid_event_node:event_node <- $x22
	.loc	2 122 6 is_stmt 1       // /mnt/disk/jenkins/workspace/release/opensource/component_code/vendor/huawei/extra/build/build_script/kirin_kernel_release/kernel/block/hisi-blk-busy-idle-notify.c:122:6
	cbz	x25, .LBB11_5
.Ltmp302:
// %bb.2:
	//DEBUG_VALUE: hisi_blk_is_valid_event_node:event_node <- $x22
	//DEBUG_VALUE: hisi_blk_busy_idle_event_register:notify_nb <- $x20
	//DEBUG_VALUE: hisi_blk_busy_idle_event_register:event_node_cpy <- $x22
	//DEBUG_VALUE: hisi_blk_busy_idle_event_register:lld <- $x21
	//DEBUG_VALUE: hisi_blk_busy_idle_event_register:blk_idle <- [DW_OP_plus_uconst 80, DW_OP_stack_value] $x21
	.loc	2 127 6                 // /mnt/disk/jenkins/workspace/release/opensource/component_code/vendor/huawei/extra/build/build_script/kirin_kernel_release/kernel/block/hisi-blk-busy-idle-notify.c:127:6
	mov	x0, x22
	bl	strlen
	.loc	2 127 46 is_stmt 0      // /mnt/disk/jenkins/workspace/release/opensource/component_code/vendor/huawei/extra/build/build_script/kirin_kernel_release/kernel/block/hisi-blk-busy-idle-notify.c:127:46
	sub	x8, x0, #1              // =1
	cmp	x8, #31                 // =31
	b.lo	.LBB11_8
.Ltmp303:
// %bb.3:
	//DEBUG_VALUE: hisi_blk_is_valid_event_node:event_node <- $x22
	//DEBUG_VALUE: hisi_blk_busy_idle_event_register:notify_nb <- $x20
	//DEBUG_VALUE: hisi_blk_busy_idle_event_register:event_node_cpy <- $x22
	//DEBUG_VALUE: hisi_blk_busy_idle_event_register:lld <- $x21
	//DEBUG_VALUE: hisi_blk_busy_idle_event_register:blk_idle <- [DW_OP_plus_uconst 80, DW_OP_stack_value] $x21
	.loc	2 129 3 is_stmt 1       // /mnt/disk/jenkins/workspace/release/opensource/component_code/vendor/huawei/extra/build/build_script/kirin_kernel_release/kernel/block/hisi-blk-busy-idle-notify.c:129:3
	adrp	x0, .L.str.39
	add	x0, x0, :lo12:.L.str.39
	b	.LBB11_6
.Ltmp304:
.LBB11_4:
	//DEBUG_VALUE: hisi_blk_busy_idle_event_register:lld <- $x21
	//DEBUG_VALUE: hisi_blk_busy_idle_event_register:blk_idle <- [DW_OP_plus_uconst 80, DW_OP_stack_value] $x21
	.loc	2 148 3                 // /mnt/disk/jenkins/workspace/release/opensource/component_code/vendor/huawei/extra/build/build_script/kirin_kernel_release/kernel/block/hisi-blk-busy-idle-notify.c:148:3
	adrp	x0, .L.str.35
	adrp	x1, .L__func__.hisi_blk_busy_idle_event_register
	add	x0, x0, :lo12:.L.str.35
	add	x1, x1, :lo12:.L__func__.hisi_blk_busy_idle_event_register
	mov	w2, #148
	bl	printk
	mov	w21, #-12
.Ltmp305:
	//DEBUG_VALUE: hisi_blk_busy_idle_event_register:ret <- -12
	.loc	2 0 3 is_stmt 0         // /mnt/disk/jenkins/workspace/release/opensource/component_code/vendor/huawei/extra/build/build_script/kirin_kernel_release/kernel/block/hisi-blk-busy-idle-notify.c:0:3
	b	.LBB11_15
.Ltmp306:
.LBB11_5:
	//DEBUG_VALUE: hisi_blk_is_valid_event_node:event_node <- $x22
	//DEBUG_VALUE: hisi_blk_busy_idle_event_register:notify_nb <- $x20
	//DEBUG_VALUE: hisi_blk_busy_idle_event_register:event_node_cpy <- $x22
	//DEBUG_VALUE: hisi_blk_busy_idle_event_register:lld <- $x21
	//DEBUG_VALUE: hisi_blk_busy_idle_event_register:blk_idle <- [DW_OP_plus_uconst 80, DW_OP_stack_value] $x21
	.loc	2 123 3 is_stmt 1       // /mnt/disk/jenkins/workspace/release/opensource/component_code/vendor/huawei/extra/build/build_script/kirin_kernel_release/kernel/block/hisi-blk-busy-idle-notify.c:123:3
	adrp	x0, .L.str.38
	add	x0, x0, :lo12:.L.str.38
.Ltmp307:
.LBB11_6:
	//DEBUG_VALUE: hisi_blk_is_valid_event_node:event_node <- $x22
	//DEBUG_VALUE: hisi_blk_busy_idle_event_register:notify_nb <- $x20
	//DEBUG_VALUE: hisi_blk_busy_idle_event_register:event_node_cpy <- $x22
	//DEBUG_VALUE: hisi_blk_busy_idle_event_register:lld <- $x21
	//DEBUG_VALUE: hisi_blk_busy_idle_event_register:blk_idle <- [DW_OP_plus_uconst 80, DW_OP_stack_value] $x21
	.loc	2 0 0 is_stmt 0         // /mnt/disk/jenkins/workspace/release/opensource/component_code/vendor/huawei/extra/build/build_script/kirin_kernel_release/kernel/block/hisi-blk-busy-idle-notify.c:0:0
	adrp	x1, .L__func__.hisi_blk_is_valid_event_node
	add	x1, x1, :lo12:.L__func__.hisi_blk_is_valid_event_node
	bl	printk
.Ltmp308:
	.loc	2 162 3 is_stmt 1       // /mnt/disk/jenkins/workspace/release/opensource/component_code/vendor/huawei/extra/build/build_script/kirin_kernel_release/kernel/block/hisi-blk-busy-idle-notify.c:162:3
	bl	dump_stack
	mov	w21, #-22
.Ltmp309:
	//DEBUG_VALUE: hisi_blk_busy_idle_event_register:ret <- -22
.LBB11_7:
	//DEBUG_VALUE: hisi_blk_busy_idle_event_register:notify_nb <- $x20
	//DEBUG_VALUE: hisi_blk_busy_idle_event_register:event_node_cpy <- $x22
	//DEBUG_VALUE: hisi_blk_busy_idle_event_register:ret <- $w21
	.loc	2 204 2                 // /mnt/disk/jenkins/workspace/release/opensource/component_code/vendor/huawei/extra/build/build_script/kirin_kernel_release/kernel/block/hisi-blk-busy-idle-notify.c:204:2
	mov	x0, x20
	bl	kfree
	b	.LBB11_15
.Ltmp310:
.LBB11_8:
	//DEBUG_VALUE: hisi_blk_busy_idle_event_register:notify_nb <- $x20
	//DEBUG_VALUE: hisi_blk_busy_idle_event_register:event_node_cpy <- $x22
	//DEBUG_VALUE: hisi_blk_busy_idle_event_register:lld <- $x21
	//DEBUG_VALUE: hisi_blk_busy_idle_event_register:blk_idle <- [DW_OP_plus_uconst 80, DW_OP_stack_value] $x21
	//DEBUG_VALUE: __list_add:next <- undef
	//DEBUG_VALUE: list_add_tail:head <- undef
	//DEBUG_VALUE: __mptr <- [DW_OP_deref] undef
	//DEBUG_VALUE: busy_idle_find_subscribed_node:pos <- [DW_OP_deref] undef
	.loc	2 0 0 is_stmt 0         // /mnt/disk/jenkins/workspace/release/opensource/component_code/vendor/huawei/extra/build/build_script/kirin_kernel_release/kernel/block/hisi-blk-busy-idle-notify.c:0:0
	mov	x24, x21
	ldr	x23, [x24, #192]!
.Ltmp311:
	//DEBUG_VALUE: busy_idle_find_subscribed_node:pos <- $x23
	.loc	2 110 2 is_stmt 1       // /mnt/disk/jenkins/workspace/release/opensource/component_code/vendor/huawei/extra/build/build_script/kirin_kernel_release/kernel/block/hisi-blk-busy-idle-notify.c:110:2
	cmp	x23, x24
	b.ne	.LBB11_10
	b	.LBB11_14
.Ltmp312:
.LBB11_9:                               //   in Loop: Header=BB11_10 Depth=1
	//DEBUG_VALUE: busy_idle_find_subscribed_node:pos <- $x23
	//DEBUG_VALUE: hisi_blk_busy_idle_event_register:notify_nb <- $x20
	//DEBUG_VALUE: hisi_blk_busy_idle_event_register:event_node_cpy <- $x22
	//DEBUG_VALUE: hisi_blk_busy_idle_event_register:lld <- $x21
	//DEBUG_VALUE: hisi_blk_busy_idle_event_register:blk_idle <- [DW_OP_plus_uconst 80, DW_OP_stack_value] $x21
	//DEBUG_VALUE: busy_idle_find_subscribed_node:pos <- [DW_OP_deref] $x23
	//DEBUG_VALUE: __mptr <- [DW_OP_deref] $x23
	.loc	2 0 0 is_stmt 0         // /mnt/disk/jenkins/workspace/release/opensource/component_code/vendor/huawei/extra/build/build_script/kirin_kernel_release/kernel/block/hisi-blk-busy-idle-notify.c:0:0
	ldr	x23, [x23]
.Ltmp313:
	//DEBUG_VALUE: busy_idle_find_subscribed_node:pos <- $x23
	.loc	2 110 2                 // /mnt/disk/jenkins/workspace/release/opensource/component_code/vendor/huawei/extra/build/build_script/kirin_kernel_release/kernel/block/hisi-blk-busy-idle-notify.c:110:2
	cmp	x23, x24
	b.eq	.LBB11_14
.Ltmp314:
.LBB11_10:                              // =>This Inner Loop Header: Depth=1
	//DEBUG_VALUE: busy_idle_find_subscribed_node:pos <- $x23
	//DEBUG_VALUE: hisi_blk_busy_idle_event_register:notify_nb <- $x20
	//DEBUG_VALUE: hisi_blk_busy_idle_event_register:event_node_cpy <- $x22
	//DEBUG_VALUE: hisi_blk_busy_idle_event_register:lld <- $x21
	//DEBUG_VALUE: hisi_blk_busy_idle_event_register:blk_idle <- [DW_OP_plus_uconst 80, DW_OP_stack_value] $x21
	.loc	2 111 44 is_stmt 1      // /mnt/disk/jenkins/workspace/release/opensource/component_code/vendor/huawei/extra/build/build_script/kirin_kernel_release/kernel/block/hisi-blk-busy-idle-notify.c:111:44
	add	x1, x23, #96            // =96
	.loc	2 111 8 is_stmt 0       // /mnt/disk/jenkins/workspace/release/opensource/component_code/vendor/huawei/extra/build/build_script/kirin_kernel_release/kernel/block/hisi-blk-busy-idle-notify.c:111:8
	mov	x0, x22
	bl	strcmp
	.loc	2 111 77                // /mnt/disk/jenkins/workspace/release/opensource/component_code/vendor/huawei/extra/build/build_script/kirin_kernel_release/kernel/block/hisi-blk-busy-idle-notify.c:111:77
	cbnz	w0, .LBB11_9
.Ltmp315:
// %bb.11:                              //   in Loop: Header=BB11_10 Depth=1
	//DEBUG_VALUE: busy_idle_find_subscribed_node:pos <- $x23
	//DEBUG_VALUE: hisi_blk_busy_idle_event_register:notify_nb <- $x20
	//DEBUG_VALUE: hisi_blk_busy_idle_event_register:event_node_cpy <- $x22
	//DEBUG_VALUE: hisi_blk_busy_idle_event_register:lld <- $x21
	//DEBUG_VALUE: hisi_blk_busy_idle_event_register:blk_idle <- [DW_OP_plus_uconst 80, DW_OP_stack_value] $x21
	.loc	2 113 21 is_stmt 1      // /mnt/disk/jenkins/workspace/release/opensource/component_code/vendor/huawei/extra/build/build_script/kirin_kernel_release/kernel/block/hisi-blk-busy-idle-notify.c:113:21
	ldr	x8, [x23, #128]
.Ltmp316:
	.loc	2 111 7                 // /mnt/disk/jenkins/workspace/release/opensource/component_code/vendor/huawei/extra/build/build_script/kirin_kernel_release/kernel/block/hisi-blk-busy-idle-notify.c:111:7
	cmp	x8, x25
	b.ne	.LBB11_9
.Ltmp317:
// %bb.12:
	//DEBUG_VALUE: hisi_blk_busy_idle_event_register:notify_nb <- $x20
	//DEBUG_VALUE: hisi_blk_busy_idle_event_register:event_node_cpy <- $x22
	//DEBUG_VALUE: hisi_blk_busy_idle_event_register:lld <- $x21
	//DEBUG_VALUE: hisi_blk_busy_idle_event_register:blk_idle <- [DW_OP_plus_uconst 80, DW_OP_stack_value] $x21
	.loc	2 168 6                 // /mnt/disk/jenkins/workspace/release/opensource/component_code/vendor/huawei/extra/build/build_script/kirin_kernel_release/kernel/block/hisi-blk-busy-idle-notify.c:168:6
	cbz	x23, .LBB11_14
.Ltmp318:
// %bb.13:
	//DEBUG_VALUE: hisi_blk_busy_idle_event_register:notify_nb <- $x20
	//DEBUG_VALUE: hisi_blk_busy_idle_event_register:event_node_cpy <- $x22
	//DEBUG_VALUE: hisi_blk_busy_idle_event_register:lld <- $x21
	//DEBUG_VALUE: hisi_blk_busy_idle_event_register:blk_idle <- [DW_OP_plus_uconst 80, DW_OP_stack_value] $x21
	.loc	2 169 3                 // /mnt/disk/jenkins/workspace/release/opensource/component_code/vendor/huawei/extra/build/build_script/kirin_kernel_release/kernel/block/hisi-blk-busy-idle-notify.c:169:3
	adrp	x0, .L.str.36
	adrp	x1, .L__func__.hisi_blk_busy_idle_event_register
	add	x0, x0, :lo12:.L.str.36
	add	x1, x1, :lo12:.L__func__.hisi_blk_busy_idle_event_register
	mov	x2, x22
	bl	printk
	.loc	2 176 3                 // /mnt/disk/jenkins/workspace/release/opensource/component_code/vendor/huawei/extra/build/build_script/kirin_kernel_release/kernel/block/hisi-blk-busy-idle-notify.c:176:3
	bl	dump_stack
	mov	w21, #-1
.Ltmp319:
	//DEBUG_VALUE: hisi_blk_busy_idle_event_register:ret <- -1
	.loc	2 0 3 is_stmt 0         // /mnt/disk/jenkins/workspace/release/opensource/component_code/vendor/huawei/extra/build/build_script/kirin_kernel_release/kernel/block/hisi-blk-busy-idle-notify.c:0:3
	b	.LBB11_7
.Ltmp320:
.LBB11_14:
	//DEBUG_VALUE: hisi_blk_busy_idle_event_register:notify_nb <- $x20
	//DEBUG_VALUE: hisi_blk_busy_idle_event_register:event_node_cpy <- $x22
	//DEBUG_VALUE: hisi_blk_busy_idle_event_register:lld <- $x21
	//DEBUG_VALUE: hisi_blk_busy_idle_event_register:blk_idle <- [DW_OP_plus_uconst 80, DW_OP_stack_value] $x21
	.loc	2 182 2 is_stmt 1       // /mnt/disk/jenkins/workspace/release/opensource/component_code/vendor/huawei/extra/build/build_script/kirin_kernel_release/kernel/block/hisi-blk-busy-idle-notify.c:182:2
	add	x0, x20, #24            // =24
	mov	w1, wzr
	mov	x2, xzr
	mov	x3, xzr
	bl	init_timer_key
	adrp	x8, __cfi_hisi_blk_busy_idle_handler_latency_check_timer_expire
	add	x8, x8, :lo12:__cfi_hisi_blk_busy_idle_handler_latency_check_timer_expire
.Ltmp321:
	.loc	2 185 40                // /mnt/disk/jenkins/workspace/release/opensource/component_code/vendor/huawei/extra/build/build_script/kirin_kernel_release/kernel/block/hisi-blk-busy-idle-notify.c:185:40
	adrp	x9, __cfi_hisi_blk_busy_idle_notify_handler
	add	x9, x9, :lo12:__cfi_hisi_blk_busy_idle_notify_handler
	mov	x23, x20
.Ltmp322:
	.loc	2 182 2                 // /mnt/disk/jenkins/workspace/release/opensource/component_code/vendor/huawei/extra/build/build_script/kirin_kernel_release/kernel/block/hisi-blk-busy-idle-notify.c:182:2
	stp	x8, x20, [x20, #48]
	orr	w8, wzr, #0x1
.Ltmp323:
	.loc	2 185 40                // /mnt/disk/jenkins/workspace/release/opensource/component_code/vendor/huawei/extra/build/build_script/kirin_kernel_release/kernel/block/hisi-blk-busy-idle-notify.c:185:40
	str	x9, [x23, #72]!
	.loc	2 186 35                // /mnt/disk/jenkins/workspace/release/opensource/component_code/vendor/huawei/extra/build/build_script/kirin_kernel_release/kernel/block/hisi-blk-busy-idle-notify.c:186:35
	str	wzr, [x20, #88]
	.loc	2 188 24                // /mnt/disk/jenkins/workspace/release/opensource/component_code/vendor/huawei/extra/build/build_script/kirin_kernel_release/kernel/block/hisi-blk-busy-idle-notify.c:188:24
	str	w8, [x20, #152]
	.loc	2 189 39                // /mnt/disk/jenkins/workspace/release/opensource/component_code/vendor/huawei/extra/build/build_script/kirin_kernel_release/kernel/block/hisi-blk-busy-idle-notify.c:189:39
	str	xzr, [x20, #168]
.Ltmp324:
	.loc	140 93 24               // /mnt/disk/jenkins/workspace/release/opensource/component_code/vendor/huawei/extra/build/build_script/kirin_kernel_release/kernel/include/linux/list.h:93:24
	ldr	x8, [x21, #200]
.Ltmp325:
	//DEBUG_VALUE: __list_add:prev <- $x8
	.loc	2 194 46                // /mnt/disk/jenkins/workspace/release/opensource/component_code/vendor/huawei/extra/build/build_script/kirin_kernel_release/kernel/block/hisi-blk-busy-idle-notify.c:194:46
	add	x0, x21, #208           // =208
	.loc	2 194 2 is_stmt 0       // /mnt/disk/jenkins/workspace/release/opensource/component_code/vendor/huawei/extra/build/build_script/kirin_kernel_release/kernel/block/hisi-blk-busy-idle-notify.c:194:2
	mov	x1, x23
.Ltmp326:
	.loc	140 63 13 is_stmt 1     // /mnt/disk/jenkins/workspace/release/opensource/component_code/vendor/huawei/extra/build/build_script/kirin_kernel_release/kernel/include/linux/list.h:63:13
	str	x20, [x21, #200]
	.loc	140 64 12               // /mnt/disk/jenkins/workspace/release/opensource/component_code/vendor/huawei/extra/build/build_script/kirin_kernel_release/kernel/include/linux/list.h:64:12
	str	x24, [x20]
.Ltmp327:
	.loc	2 187 31                // /mnt/disk/jenkins/workspace/release/opensource/component_code/vendor/huawei/extra/build/build_script/kirin_kernel_release/kernel/block/hisi-blk-busy-idle-notify.c:187:31
	stp	x8, x21, [x20, #8]
.Ltmp328:
	//DEBUG_VALUE: __write_once_size:p <- $x8
	//DEBUG_VALUE: __write_once_size:size <- 8
	//DEBUG_VALUE: __write_once_size:res <- undef
	.loc	137 213 31              // /mnt/disk/jenkins/workspace/release/opensource/component_code/vendor/huawei/extra/build/build_script/kirin_kernel_release/kernel/include/linux/compiler.h:213:31
	str	x20, [x8]
.Ltmp329:
	.loc	2 194 2                 // /mnt/disk/jenkins/workspace/release/opensource/component_code/vendor/huawei/extra/build/build_script/kirin_kernel_release/kernel/block/hisi-blk-busy-idle-notify.c:194:2
	bl	blocking_notifier_chain_register
.Ltmp330:
	.loc	2 196 2                 // /mnt/disk/jenkins/workspace/release/opensource/component_code/vendor/huawei/extra/build/build_script/kirin_kernel_release/kernel/block/hisi-blk-busy-idle-notify.c:196:2
	adrp	x0, .L.str.37
	add	x0, x0, :lo12:.L.str.37
	mov	x1, x22
	mov	x2, x23
	bl	printk
.Ltmp331:
	//DEBUG_VALUE: hisi_blk_busy_idle_event_register:ret <- 0
	.loc	2 0 0 is_stmt 0         // /mnt/disk/jenkins/workspace/release/opensource/component_code/vendor/huawei/extra/build/build_script/kirin_kernel_release/kernel/block/hisi-blk-busy-idle-notify.c:0:0
	mov	w21, wzr
.Ltmp332:
.LBB11_15:
	//DEBUG_VALUE: hisi_blk_busy_idle_event_register:ret <- $w21
	.loc	2 208 2 is_stmt 1       // /mnt/disk/jenkins/workspace/release/opensource/component_code/vendor/huawei/extra/build/build_script/kirin_kernel_release/kernel/block/hisi-blk-busy-idle-notify.c:208:2
	mov	x0, x19
	bl	mutex_unlock
	.loc	2 209 2                 // /mnt/disk/jenkins/workspace/release/opensource/component_code/vendor/huawei/extra/build/build_script/kirin_kernel_release/kernel/block/hisi-blk-busy-idle-notify.c:209:2
	mov	w0, w21
	ldp	x29, x30, [sp, #64]     // 16-byte Folded Reload
	ldp	x20, x19, [sp, #48]     // 16-byte Folded Reload
	ldp	x22, x21, [sp, #32]     // 16-byte Folded Reload
.Ltmp333:
	ldp	x24, x23, [sp, #16]     // 16-byte Folded Reload
	ldr	x25, [sp], #80          // 8-byte Folded Reload
	ret
.Ltmp334:
.Lfunc_end11:
	.size	hisi_blk_busy_idle_event_register, .Lfunc_end11-hisi_blk_busy_idle_event_register
	.cfi_endproc
                                        // -- End function
	.section	.text.blk_queue_busy_idle_event_subscriber,"ax",@progbits
	.hidden	blk_queue_busy_idle_event_subscriber // -- Begin function blk_queue_busy_idle_event_subscriber
	.globl	blk_queue_busy_idle_event_subscriber
	.p2align	2
	.type	blk_queue_busy_idle_event_subscriber,@function
blk_queue_busy_idle_event_subscriber:   // @blk_queue_busy_idle_event_subscriber
.Lfunc_begin12:
	.loc	2 573 0                 // /mnt/disk/jenkins/workspace/release/opensource/component_code/vendor/huawei/extra/build/build_script/kirin_kernel_release/kernel/block/hisi-blk-busy-idle-notify.c:573:0
	.cfi_startproc
// %bb.0:
	str	x19, [sp, #-32]!        // 8-byte Folded Spill
	stp	x29, x30, [sp, #16]     // 16-byte Folded Spill
	add	x29, sp, #16            // =16
	.cfi_def_cfa w29, 16
	.cfi_offset w30, -8
	.cfi_offset w29, -16
	.cfi_offset w19, -32
	//DEBUG_VALUE: blk_queue_busy_idle_event_subscriber:q <- $x0
	//DEBUG_VALUE: blk_queue_busy_idle_event_subscriber:event_node <- $x1
	mov	x19, x1
.Ltmp335:
	//DEBUG_VALUE: blk_queue_busy_idle_event_subscriber:event_node <- $x19
	//DEBUG_VALUE: blk_queue_busy_idle_event_subscriber:q <- $x0
	//DEBUG_VALUE: blk_queue_busy_idle_event_subscriber:q <- $x0
	.loc	2 575 3 prologue_end    // /mnt/disk/jenkins/workspace/release/opensource/component_code/vendor/huawei/extra/build/build_script/kirin_kernel_release/kernel/block/hisi-blk-busy-idle-notify.c:575:3
	bl	hisi_blk_get_lld
.Ltmp336:
	.loc	2 574 9                 // /mnt/disk/jenkins/workspace/release/opensource/component_code/vendor/huawei/extra/build/build_script/kirin_kernel_release/kernel/block/hisi-blk-busy-idle-notify.c:574:9
	mov	x1, x19
.Ltmp337:
	//DEBUG_VALUE: blk_queue_busy_idle_event_subscriber:event_node <- $x1
	bl	hisi_blk_busy_idle_event_register
.Ltmp338:
	.loc	2 574 2 is_stmt 0       // /mnt/disk/jenkins/workspace/release/opensource/component_code/vendor/huawei/extra/build/build_script/kirin_kernel_release/kernel/block/hisi-blk-busy-idle-notify.c:574:2
	ldp	x29, x30, [sp, #16]     // 16-byte Folded Reload
	ldr	x19, [sp], #32          // 8-byte Folded Reload
	ret
.Ltmp339:
.Lfunc_end12:
	.size	blk_queue_busy_idle_event_subscriber, .Lfunc_end12-blk_queue_busy_idle_event_subscriber
	.cfi_endproc
                                        // -- End function
	.section	.text.blk_lld_busy_idle_event_subscriber,"ax",@progbits
	.hidden	blk_lld_busy_idle_event_subscriber // -- Begin function blk_lld_busy_idle_event_subscriber
	.globl	blk_lld_busy_idle_event_subscriber
	.p2align	2
	.type	blk_lld_busy_idle_event_subscriber,@function
blk_lld_busy_idle_event_subscriber:     // @blk_lld_busy_idle_event_subscriber
.Lfunc_begin13:
	.loc	2 584 0 is_stmt 1       // /mnt/disk/jenkins/workspace/release/opensource/component_code/vendor/huawei/extra/build/build_script/kirin_kernel_release/kernel/block/hisi-blk-busy-idle-notify.c:584:0
	.cfi_startproc
// %bb.0:
	stp	x29, x30, [sp, #-16]!   // 16-byte Folded Spill
	mov	x29, sp
	.cfi_def_cfa w29, 16
	.cfi_offset w30, -8
	.cfi_offset w29, -16
	//DEBUG_VALUE: blk_lld_busy_idle_event_subscriber:lld <- $x0
	//DEBUG_VALUE: blk_lld_busy_idle_event_subscriber:lld <- $x0
	//DEBUG_VALUE: blk_lld_busy_idle_event_subscriber:event_node <- $x1
	//DEBUG_VALUE: blk_lld_busy_idle_event_subscriber:event_node <- $x1
	//DEBUG_VALUE: blk_lld_busy_idle_event_subscriber:event_node <- $x1
	//DEBUG_VALUE: blk_lld_busy_idle_event_subscriber:lld <- $x0
.Ltmp340:
	.loc	2 585 9 prologue_end    // /mnt/disk/jenkins/workspace/release/opensource/component_code/vendor/huawei/extra/build/build_script/kirin_kernel_release/kernel/block/hisi-blk-busy-idle-notify.c:585:9
	bl	hisi_blk_busy_idle_event_register
.Ltmp341:
	.loc	2 585 2 is_stmt 0       // /mnt/disk/jenkins/workspace/release/opensource/component_code/vendor/huawei/extra/build/build_script/kirin_kernel_release/kernel/block/hisi-blk-busy-idle-notify.c:585:2
	ldp	x29, x30, [sp], #16     // 16-byte Folded Reload
	ret
.Ltmp342:
.Lfunc_end13:
	.size	blk_lld_busy_idle_event_subscriber, .Lfunc_end13-blk_lld_busy_idle_event_subscriber
	.cfi_endproc
                                        // -- End function
	.section	.text.blk_busy_idle_event_unsubscriber,"ax",@progbits
	.hidden	blk_busy_idle_event_unsubscriber // -- Begin function blk_busy_idle_event_unsubscriber
	.globl	blk_busy_idle_event_unsubscriber
	.p2align	2
	.type	blk_busy_idle_event_unsubscriber,@function
blk_busy_idle_event_unsubscriber:       // @blk_busy_idle_event_unsubscriber
.Lfunc_begin14:
	.loc	2 593 0 is_stmt 1       // /mnt/disk/jenkins/workspace/release/opensource/component_code/vendor/huawei/extra/build/build_script/kirin_kernel_release/kernel/block/hisi-blk-busy-idle-notify.c:593:0
	.cfi_startproc
// %bb.0:
	stp	x29, x30, [sp, #-16]!   // 16-byte Folded Spill
	mov	x29, sp
	.cfi_def_cfa w29, 16
	.cfi_offset w30, -8
	.cfi_offset w29, -16
	//DEBUG_VALUE: blk_busy_idle_event_unsubscriber:event_node <- $x0
	//DEBUG_VALUE: blk_busy_idle_event_unsubscriber:event_node <- $x0
	//DEBUG_VALUE: blk_busy_idle_event_unsubscriber:event_node <- $x0
.Ltmp343:
	.loc	2 594 9 prologue_end    // /mnt/disk/jenkins/workspace/release/opensource/component_code/vendor/huawei/extra/build/build_script/kirin_kernel_release/kernel/block/hisi-blk-busy-idle-notify.c:594:9
	bl	hisi_blk_busy_idle_event_unregister
.Ltmp344:
	.loc	2 594 2 is_stmt 0       // /mnt/disk/jenkins/workspace/release/opensource/component_code/vendor/huawei/extra/build/build_script/kirin_kernel_release/kernel/block/hisi-blk-busy-idle-notify.c:594:2
	ldp	x29, x30, [sp], #16     // 16-byte Folded Reload
	ret
.Ltmp345:
.Lfunc_end14:
	.size	blk_busy_idle_event_unsubscriber, .Lfunc_end14-blk_busy_idle_event_unsubscriber
	.cfi_endproc
                                        // -- End function
	.section	.text.hisi_blk_busy_idle_event_unregister,"ax",@progbits
	.p2align	2               // -- Begin function hisi_blk_busy_idle_event_unregister
	.type	hisi_blk_busy_idle_event_unregister,@function
hisi_blk_busy_idle_event_unregister:    // @hisi_blk_busy_idle_event_unregister
.Lfunc_begin15:
	.loc	2 213 0 is_stmt 1       // /mnt/disk/jenkins/workspace/release/opensource/component_code/vendor/huawei/extra/build/build_script/kirin_kernel_release/kernel/block/hisi-blk-busy-idle-notify.c:213:0
	.cfi_startproc
// %bb.0:
	stp	x24, x23, [sp, #-64]!   // 16-byte Folded Spill
	stp	x22, x21, [sp, #16]     // 16-byte Folded Spill
	stp	x20, x19, [sp, #32]     // 16-byte Folded Spill
	stp	x29, x30, [sp, #48]     // 16-byte Folded Spill
	add	x29, sp, #48            // =48
	.cfi_def_cfa w29, 16
	.cfi_offset w30, -8
	.cfi_offset w29, -16
	.cfi_offset w19, -24
	.cfi_offset w20, -32
	.cfi_offset w21, -40
	.cfi_offset w22, -48
	.cfi_offset w23, -56
	.cfi_offset w24, -64
	//DEBUG_VALUE: hisi_blk_busy_idle_event_unregister:event_node <- $x0
.Ltmp346:
	//DEBUG_VALUE: busy_idle_find_subscribed_node:event_node <- $x0
	.loc	2 216 40 prologue_end   // /mnt/disk/jenkins/workspace/release/opensource/component_code/vendor/huawei/extra/build/build_script/kirin_kernel_release/kernel/block/hisi-blk-busy-idle-notify.c:216:40
	ldr	x23, [x0, #48]
.Ltmp347:
	//DEBUG_VALUE: hisi_blk_busy_idle_event_unregister:lld <- $x23
	//DEBUG_VALUE: hisi_blk_busy_idle_event_unregister:blk_idle <- [DW_OP_plus_uconst 80, DW_OP_stack_value] $x23
	.loc	2 0 40 is_stmt 0        // /mnt/disk/jenkins/workspace/release/opensource/component_code/vendor/huawei/extra/build/build_script/kirin_kernel_release/kernel/block/hisi-blk-busy-idle-notify.c:0:40
	mov	x21, x0
.Ltmp348:
	//DEBUG_VALUE: hisi_blk_busy_idle_event_unregister:ret <- 0
	//DEBUG_VALUE: hisi_blk_busy_idle_event_unregister:event_node <- $x21
	.loc	2 219 24 is_stmt 1      // /mnt/disk/jenkins/workspace/release/opensource/component_code/vendor/huawei/extra/build/build_script/kirin_kernel_release/kernel/block/hisi-blk-busy-idle-notify.c:219:24
	add	x19, x23, #296          // =296
	.loc	2 219 2 is_stmt 0       // /mnt/disk/jenkins/workspace/release/opensource/component_code/vendor/huawei/extra/build/build_script/kirin_kernel_release/kernel/block/hisi-blk-busy-idle-notify.c:219:2
	mov	x0, x19
.Ltmp349:
	bl	mutex_lock
.Ltmp350:
	//DEBUG_VALUE: busy_idle_find_subscribed_node:pos <- [DW_OP_deref] undef
	//DEBUG_VALUE: __mptr <- [DW_OP_deref] undef
	//DEBUG_VALUE: busy_idle_find_subscribed_node:lld <- $x23
	//DEBUG_VALUE: busy_idle_find_subscribed_node:event_node <- $x21
	.loc	2 0 0                   // /mnt/disk/jenkins/workspace/release/opensource/component_code/vendor/huawei/extra/build/build_script/kirin_kernel_release/kernel/block/hisi-blk-busy-idle-notify.c:0:0
	mov	x24, x23
	ldr	x20, [x24, #192]!
.Ltmp351:
	//DEBUG_VALUE: busy_idle_find_subscribed_node:pos <- $x20
	.loc	2 110 2 is_stmt 1       // /mnt/disk/jenkins/workspace/release/opensource/component_code/vendor/huawei/extra/build/build_script/kirin_kernel_release/kernel/block/hisi-blk-busy-idle-notify.c:110:2
	cmp	x20, x24
	b.ne	.LBB15_2
	b	.LBB15_6
.Ltmp352:
.LBB15_1:                               //   in Loop: Header=BB15_2 Depth=1
	//DEBUG_VALUE: hisi_blk_busy_idle_event_unregister:notify_nb <- $x20
	//DEBUG_VALUE: busy_idle_find_subscribed_node:pos <- $x20
	//DEBUG_VALUE: busy_idle_find_subscribed_node:event_node <- $x21
	//DEBUG_VALUE: busy_idle_find_subscribed_node:lld <- $x23
	//DEBUG_VALUE: hisi_blk_busy_idle_event_unregister:event_node <- $x21
	//DEBUG_VALUE: hisi_blk_busy_idle_event_unregister:blk_idle <- [DW_OP_plus_uconst 80, DW_OP_stack_value] $x23
	//DEBUG_VALUE: hisi_blk_busy_idle_event_unregister:lld <- $x23
	//DEBUG_VALUE: busy_idle_find_subscribed_node:pos <- [DW_OP_deref] $x20
	//DEBUG_VALUE: __mptr <- [DW_OP_deref] $x20
	.loc	2 0 0 is_stmt 0         // /mnt/disk/jenkins/workspace/release/opensource/component_code/vendor/huawei/extra/build/build_script/kirin_kernel_release/kernel/block/hisi-blk-busy-idle-notify.c:0:0
	ldr	x20, [x20]
.Ltmp353:
	//DEBUG_VALUE: busy_idle_find_subscribed_node:pos <- $x20
	.loc	2 110 2                 // /mnt/disk/jenkins/workspace/release/opensource/component_code/vendor/huawei/extra/build/build_script/kirin_kernel_release/kernel/block/hisi-blk-busy-idle-notify.c:110:2
	cmp	x20, x24
	b.eq	.LBB15_6
.Ltmp354:
.LBB15_2:                               // =>This Inner Loop Header: Depth=1
	//DEBUG_VALUE: busy_idle_find_subscribed_node:pos <- $x20
	//DEBUG_VALUE: busy_idle_find_subscribed_node:event_node <- $x21
	//DEBUG_VALUE: busy_idle_find_subscribed_node:lld <- $x23
	//DEBUG_VALUE: hisi_blk_busy_idle_event_unregister:event_node <- $x21
	//DEBUG_VALUE: hisi_blk_busy_idle_event_unregister:blk_idle <- [DW_OP_plus_uconst 80, DW_OP_stack_value] $x23
	//DEBUG_VALUE: hisi_blk_busy_idle_event_unregister:lld <- $x23
	//DEBUG_VALUE: hisi_blk_busy_idle_event_unregister:notify_nb <- $x20
	.loc	2 111 44 is_stmt 1      // /mnt/disk/jenkins/workspace/release/opensource/component_code/vendor/huawei/extra/build/build_script/kirin_kernel_release/kernel/block/hisi-blk-busy-idle-notify.c:111:44
	add	x22, x20, #96           // =96
	.loc	2 111 8 is_stmt 0       // /mnt/disk/jenkins/workspace/release/opensource/component_code/vendor/huawei/extra/build/build_script/kirin_kernel_release/kernel/block/hisi-blk-busy-idle-notify.c:111:8
	mov	x0, x21
	mov	x1, x22
	bl	strcmp
	.loc	2 111 77                // /mnt/disk/jenkins/workspace/release/opensource/component_code/vendor/huawei/extra/build/build_script/kirin_kernel_release/kernel/block/hisi-blk-busy-idle-notify.c:111:77
	cbnz	w0, .LBB15_1
.Ltmp355:
// %bb.3:                               //   in Loop: Header=BB15_2 Depth=1
	//DEBUG_VALUE: hisi_blk_busy_idle_event_unregister:notify_nb <- $x20
	//DEBUG_VALUE: busy_idle_find_subscribed_node:pos <- $x20
	//DEBUG_VALUE: busy_idle_find_subscribed_node:event_node <- $x21
	//DEBUG_VALUE: busy_idle_find_subscribed_node:lld <- $x23
	//DEBUG_VALUE: hisi_blk_busy_idle_event_unregister:event_node <- $x21
	//DEBUG_VALUE: hisi_blk_busy_idle_event_unregister:blk_idle <- [DW_OP_plus_uconst 80, DW_OP_stack_value] $x23
	//DEBUG_VALUE: hisi_blk_busy_idle_event_unregister:lld <- $x23
	.loc	2 112 17 is_stmt 1      // /mnt/disk/jenkins/workspace/release/opensource/component_code/vendor/huawei/extra/build/build_script/kirin_kernel_release/kernel/block/hisi-blk-busy-idle-notify.c:112:17
	ldr	x8, [x21, #32]
	.loc	2 113 21                // /mnt/disk/jenkins/workspace/release/opensource/component_code/vendor/huawei/extra/build/build_script/kirin_kernel_release/kernel/block/hisi-blk-busy-idle-notify.c:113:21
	ldr	x9, [x20, #128]
.Ltmp356:
	.loc	2 111 7                 // /mnt/disk/jenkins/workspace/release/opensource/component_code/vendor/huawei/extra/build/build_script/kirin_kernel_release/kernel/block/hisi-blk-busy-idle-notify.c:111:7
	cmp	x8, x9
	b.ne	.LBB15_1
.Ltmp357:
// %bb.4:
	//DEBUG_VALUE: hisi_blk_busy_idle_event_unregister:notify_nb <- $x20
	//DEBUG_VALUE: hisi_blk_busy_idle_event_unregister:event_node <- $x21
	//DEBUG_VALUE: hisi_blk_busy_idle_event_unregister:blk_idle <- [DW_OP_plus_uconst 80, DW_OP_stack_value] $x23
	//DEBUG_VALUE: hisi_blk_busy_idle_event_unregister:lld <- $x23
	.loc	2 221 6                 // /mnt/disk/jenkins/workspace/release/opensource/component_code/vendor/huawei/extra/build/build_script/kirin_kernel_release/kernel/block/hisi-blk-busy-idle-notify.c:221:6
	cbz	x20, .LBB15_6
.Ltmp358:
// %bb.5:
	//DEBUG_VALUE: hisi_blk_busy_idle_event_unregister:notify_nb <- $x20
	//DEBUG_VALUE: hisi_blk_busy_idle_event_unregister:event_node <- $x21
	//DEBUG_VALUE: hisi_blk_busy_idle_event_unregister:blk_idle <- [DW_OP_plus_uconst 80, DW_OP_stack_value] $x23
	//DEBUG_VALUE: hisi_blk_busy_idle_event_unregister:lld <- $x23
	.loc	2 231 15                // /mnt/disk/jenkins/workspace/release/opensource/component_code/vendor/huawei/extra/build/build_script/kirin_kernel_release/kernel/block/hisi-blk-busy-idle-notify.c:231:15
	add	x21, x20, #72           // =72
.Ltmp359:
	.loc	2 230 14                // /mnt/disk/jenkins/workspace/release/opensource/component_code/vendor/huawei/extra/build/build_script/kirin_kernel_release/kernel/block/hisi-blk-busy-idle-notify.c:230:14
	add	x0, x23, #208           // =208
	.loc	2 229 2                 // /mnt/disk/jenkins/workspace/release/opensource/component_code/vendor/huawei/extra/build/build_script/kirin_kernel_release/kernel/block/hisi-blk-busy-idle-notify.c:229:2
	mov	x1, x21
	bl	blocking_notifier_chain_unregister
	.loc	2 232 2                 // /mnt/disk/jenkins/workspace/release/opensource/component_code/vendor/huawei/extra/build/build_script/kirin_kernel_release/kernel/block/hisi-blk-busy-idle-notify.c:232:2
	adrp	x0, .L.str.41
	add	x0, x0, :lo12:.L.str.41
	mov	x1, x22
	mov	x2, x21
	bl	printk
.Ltmp360:
	//DEBUG_VALUE: __list_del_entry:entry <- $x20
	//DEBUG_VALUE: list_del_init:entry <- $x20
	.loc	140 120 33              // /mnt/disk/jenkins/workspace/release/opensource/component_code/vendor/huawei/extra/build/build_script/kirin_kernel_release/kernel/include/linux/list.h:120:33
	ldp	x8, x9, [x20]
.Ltmp361:
	//DEBUG_VALUE: __write_once_size:p <- undef
	//DEBUG_VALUE: __write_once_size:res <- undef
	//DEBUG_VALUE: __list_del:prev <- $x9
	//DEBUG_VALUE: __list_del:next <- $x8
	.loc	2 236 2                 // /mnt/disk/jenkins/workspace/release/opensource/component_code/vendor/huawei/extra/build/build_script/kirin_kernel_release/kernel/block/hisi-blk-busy-idle-notify.c:236:2
	mov	x0, x20
.Ltmp362:
	.loc	140 105 13              // /mnt/disk/jenkins/workspace/release/opensource/component_code/vendor/huawei/extra/build/build_script/kirin_kernel_release/kernel/include/linux/list.h:105:13
	str	x9, [x8, #8]
.Ltmp363:
	//DEBUG_VALUE: __write_once_size:res <- undef
	//DEBUG_VALUE: __write_once_size:size <- 8
	.loc	137 213 31              // /mnt/disk/jenkins/workspace/release/opensource/component_code/vendor/huawei/extra/build/build_script/kirin_kernel_release/kernel/include/linux/compiler.h:213:31
	str	x8, [x9]
.Ltmp364:
	//DEBUG_VALUE: __write_once_size:p <- $x20
	//DEBUG_VALUE: __write_once_size:size <- 8
	//DEBUG_VALUE: INIT_LIST_HEAD:list <- $x20
	.loc	137 213 31 is_stmt 0    // /mnt/disk/jenkins/workspace/release/opensource/component_code/vendor/huawei/extra/build/build_script/kirin_kernel_release/kernel/include/linux/compiler.h:213:31
	str	x20, [x20]
.Ltmp365:
	.loc	140 29 13 is_stmt 1     // /mnt/disk/jenkins/workspace/release/opensource/component_code/vendor/huawei/extra/build/build_script/kirin_kernel_release/kernel/include/linux/list.h:29:13
	str	x20, [x20, #8]
.Ltmp366:
	.loc	2 236 2                 // /mnt/disk/jenkins/workspace/release/opensource/component_code/vendor/huawei/extra/build/build_script/kirin_kernel_release/kernel/block/hisi-blk-busy-idle-notify.c:236:2
	bl	kfree
.Ltmp367:
	.loc	2 0 0 is_stmt 0         // /mnt/disk/jenkins/workspace/release/opensource/component_code/vendor/huawei/extra/build/build_script/kirin_kernel_release/kernel/block/hisi-blk-busy-idle-notify.c:0:0
	mov	w20, wzr
.Ltmp368:
	b	.LBB15_7
.Ltmp369:
.LBB15_6:
	//DEBUG_VALUE: hisi_blk_busy_idle_event_unregister:event_node <- $x21
	//DEBUG_VALUE: hisi_blk_busy_idle_event_unregister:blk_idle <- [DW_OP_plus_uconst 80, DW_OP_stack_value] $x23
	//DEBUG_VALUE: hisi_blk_busy_idle_event_unregister:lld <- $x23
	.loc	2 222 3 is_stmt 1       // /mnt/disk/jenkins/workspace/release/opensource/component_code/vendor/huawei/extra/build/build_script/kirin_kernel_release/kernel/block/hisi-blk-busy-idle-notify.c:222:3
	adrp	x0, .L.str.40
	adrp	x1, .L__func__.hisi_blk_busy_idle_event_unregister
	add	x0, x0, :lo12:.L.str.40
	add	x1, x1, :lo12:.L__func__.hisi_blk_busy_idle_event_unregister
	mov	w2, #223
	bl	printk
	.loc	2 224 3                 // /mnt/disk/jenkins/workspace/release/opensource/component_code/vendor/huawei/extra/build/build_script/kirin_kernel_release/kernel/block/hisi-blk-busy-idle-notify.c:224:3
	bl	dump_stack
	mov	w20, #-22
.Ltmp370:
	//DEBUG_VALUE: hisi_blk_busy_idle_event_unregister:ret <- -22
.LBB15_7:
	//DEBUG_VALUE: hisi_blk_busy_idle_event_unregister:blk_idle <- [DW_OP_plus_uconst 80, DW_OP_stack_value] $x23
	//DEBUG_VALUE: hisi_blk_busy_idle_event_unregister:lld <- $x23
	//DEBUG_VALUE: hisi_blk_busy_idle_event_unregister:ret <- $w20
	.loc	2 239 2                 // /mnt/disk/jenkins/workspace/release/opensource/component_code/vendor/huawei/extra/build/build_script/kirin_kernel_release/kernel/block/hisi-blk-busy-idle-notify.c:239:2
	mov	x0, x19
	bl	mutex_unlock
	.loc	2 240 2                 // /mnt/disk/jenkins/workspace/release/opensource/component_code/vendor/huawei/extra/build/build_script/kirin_kernel_release/kernel/block/hisi-blk-busy-idle-notify.c:240:2
	mov	w0, w20
	ldp	x29, x30, [sp, #48]     // 16-byte Folded Reload
	ldp	x20, x19, [sp, #32]     // 16-byte Folded Reload
.Ltmp371:
	ldp	x22, x21, [sp, #16]     // 16-byte Folded Reload
	ldp	x24, x23, [sp], #64     // 16-byte Folded Reload
.Ltmp372:
	ret
.Ltmp373:
.Lfunc_end15:
	.size	hisi_blk_busy_idle_event_unregister, .Lfunc_end15-hisi_blk_busy_idle_event_unregister
	.cfi_endproc
                                        // -- End function
	.section	.text.blk_queue_busy_idle_event_unsubscriber,"ax",@progbits
	.hidden	blk_queue_busy_idle_event_unsubscriber // -- Begin function blk_queue_busy_idle_event_unsubscriber
	.globl	blk_queue_busy_idle_event_unsubscriber
	.p2align	2
	.type	blk_queue_busy_idle_event_unsubscriber,@function
blk_queue_busy_idle_event_unsubscriber: // @blk_queue_busy_idle_event_unsubscriber
.Lfunc_begin16:
	.loc	2 602 0                 // /mnt/disk/jenkins/workspace/release/opensource/component_code/vendor/huawei/extra/build/build_script/kirin_kernel_release/kernel/block/hisi-blk-busy-idle-notify.c:602:0
	.cfi_startproc
// %bb.0:
	stp	x29, x30, [sp, #-16]!   // 16-byte Folded Spill
	mov	x29, sp
	.cfi_def_cfa w29, 16
	.cfi_offset w30, -8
	.cfi_offset w29, -16
	//DEBUG_VALUE: blk_queue_busy_idle_event_unsubscriber:event_node <- $x0
	//DEBUG_VALUE: blk_queue_busy_idle_event_unsubscriber:event_node <- $x0
	//DEBUG_VALUE: blk_queue_busy_idle_event_unsubscriber:event_node <- $x0
.Ltmp374:
	.loc	2 603 9 prologue_end    // /mnt/disk/jenkins/workspace/release/opensource/component_code/vendor/huawei/extra/build/build_script/kirin_kernel_release/kernel/block/hisi-blk-busy-idle-notify.c:603:9
	bl	hisi_blk_busy_idle_event_unregister
.Ltmp375:
	.loc	2 603 2 is_stmt 0       // /mnt/disk/jenkins/workspace/release/opensource/component_code/vendor/huawei/extra/build/build_script/kirin_kernel_release/kernel/block/hisi-blk-busy-idle-notify.c:603:2
	ldp	x29, x30, [sp], #16     // 16-byte Folded Reload
	ret
.Ltmp376:
.Lfunc_end16:
	.size	blk_queue_busy_idle_event_unsubscriber, .Lfunc_end16-blk_queue_busy_idle_event_unsubscriber
	.cfi_endproc
                                        // -- End function
	.section	.text.blk_queue_busy_idle_enable,"ax",@progbits
	.hidden	blk_queue_busy_idle_enable // -- Begin function blk_queue_busy_idle_enable
	.globl	blk_queue_busy_idle_enable
	.p2align	2
	.type	blk_queue_busy_idle_enable,@function
blk_queue_busy_idle_enable:             // @blk_queue_busy_idle_enable
.Lfunc_begin17:
	.loc	2 611 0 is_stmt 1       // /mnt/disk/jenkins/workspace/release/opensource/component_code/vendor/huawei/extra/build/build_script/kirin_kernel_release/kernel/block/hisi-blk-busy-idle-notify.c:611:0
	.cfi_startproc
// %bb.0:
	str	x19, [sp, #-32]!        // 8-byte Folded Spill
	stp	x29, x30, [sp, #16]     // 16-byte Folded Spill
	add	x29, sp, #16            // =16
	.cfi_def_cfa w29, 16
	.cfi_offset w30, -8
	.cfi_offset w29, -16
	.cfi_offset w19, -32
	//DEBUG_VALUE: blk_queue_busy_idle_enable:q <- $x0
	//DEBUG_VALUE: blk_queue_busy_idle_enable:enable <- $w1
	mov	w19, w1
.Ltmp377:
	//DEBUG_VALUE: blk_queue_busy_idle_enable:enable <- $w19
	//DEBUG_VALUE: blk_queue_busy_idle_enable:q <- $x0
	//DEBUG_VALUE: blk_queue_busy_idle_enable:q <- $x0
	.loc	2 612 32 prologue_end   // /mnt/disk/jenkins/workspace/release/opensource/component_code/vendor/huawei/extra/build/build_script/kirin_kernel_release/kernel/block/hisi-blk-busy-idle-notify.c:612:32
	bl	hisi_blk_get_lld
.Ltmp378:
	//DEBUG_VALUE: blk_queue_busy_idle_enable:blk_lld <- $x0
	.loc	2 0 0 is_stmt 0         // /mnt/disk/jenkins/workspace/release/opensource/component_code/vendor/huawei/extra/build/build_script/kirin_kernel_release/kernel/block/hisi-blk-busy-idle-notify.c:0:0
	ldr	x8, [x0, #24]
.Ltmp379:
	.loc	2 614 6 is_stmt 1       // /mnt/disk/jenkins/workspace/release/opensource/component_code/vendor/huawei/extra/build/build_script/kirin_kernel_release/kernel/block/hisi-blk-busy-idle-notify.c:614:6
	cmp	w19, #0                 // =0
	and	x9, x8, #0xffffffffffffffef
	orr	x8, x8, #0x10
	csel	x8, x9, x8, eq
.Ltmp380:
	.loc	2 0 0 is_stmt 0         // /mnt/disk/jenkins/workspace/release/opensource/component_code/vendor/huawei/extra/build/build_script/kirin_kernel_release/kernel/block/hisi-blk-busy-idle-notify.c:0:0
	str	x8, [x0, #24]
.Ltmp381:
	.loc	2 618 1 is_stmt 1       // /mnt/disk/jenkins/workspace/release/opensource/component_code/vendor/huawei/extra/build/build_script/kirin_kernel_release/kernel/block/hisi-blk-busy-idle-notify.c:618:1
	ldp	x29, x30, [sp, #16]     // 16-byte Folded Reload
	ldr	x19, [sp], #32          // 8-byte Folded Reload
.Ltmp382:
	ret
.Ltmp383:
.Lfunc_end17:
	.size	blk_queue_busy_idle_enable, .Lfunc_end17-blk_queue_busy_idle_enable
	.cfi_endproc
                                        // -- End function
	.section	.text.blk_mq_tagset_busy_idle_enable,"ax",@progbits
	.hidden	blk_mq_tagset_busy_idle_enable // -- Begin function blk_mq_tagset_busy_idle_enable
	.globl	blk_mq_tagset_busy_idle_enable
	.p2align	2
	.type	blk_mq_tagset_busy_idle_enable,@function
blk_mq_tagset_busy_idle_enable:         // @blk_mq_tagset_busy_idle_enable
.Lfunc_begin18:
	.loc	2 625 0                 // /mnt/disk/jenkins/workspace/release/opensource/component_code/vendor/huawei/extra/build/build_script/kirin_kernel_release/kernel/block/hisi-blk-busy-idle-notify.c:625:0
	.cfi_startproc
// %bb.0:
	//DEBUG_VALUE: blk_mq_tagset_busy_idle_enable:tag_set <- $x0
	//DEBUG_VALUE: blk_mq_tagset_busy_idle_enable:tag_set <- $x0
	//DEBUG_VALUE: blk_mq_tagset_busy_idle_enable:enable <- $w1
	//DEBUG_VALUE: blk_mq_tagset_busy_idle_enable:enable <- $w1
	//DEBUG_VALUE: blk_mq_tagset_busy_idle_enable:blk_lld <- [DW_OP_plus_uconst 16, DW_OP_stack_value] $x0
	//DEBUG_VALUE: blk_mq_tagset_busy_idle_enable:blk_lld <- [DW_OP_plus_uconst 16, DW_OP_stack_value] $x0
	.loc	2 0 0 prologue_end      // /mnt/disk/jenkins/workspace/release/opensource/component_code/vendor/huawei/extra/build/build_script/kirin_kernel_release/kernel/block/hisi-blk-busy-idle-notify.c:0:0
	ldr	x8, [x0, #40]
.Ltmp384:
	.loc	2 628 6                 // /mnt/disk/jenkins/workspace/release/opensource/component_code/vendor/huawei/extra/build/build_script/kirin_kernel_release/kernel/block/hisi-blk-busy-idle-notify.c:628:6
	cmp	w1, #0                  // =0
	and	x9, x8, #0xffffffffffffffef
	orr	x8, x8, #0x10
	csel	x8, x9, x8, eq
.Ltmp385:
	.loc	2 0 0 is_stmt 0         // /mnt/disk/jenkins/workspace/release/opensource/component_code/vendor/huawei/extra/build/build_script/kirin_kernel_release/kernel/block/hisi-blk-busy-idle-notify.c:0:0
	str	x8, [x0, #40]
.Ltmp386:
	.loc	2 632 1 is_stmt 1       // /mnt/disk/jenkins/workspace/release/opensource/component_code/vendor/huawei/extra/build/build_script/kirin_kernel_release/kernel/block/hisi-blk-busy-idle-notify.c:632:1
	ret
.Ltmp387:
.Lfunc_end18:
	.size	blk_mq_tagset_busy_idle_enable, .Lfunc_end18-blk_mq_tagset_busy_idle_enable
	.cfi_endproc
                                        // -- End function
	.section	.text.blk_mq_tagset_hw_idle_notify_enable,"ax",@progbits
	.hidden	blk_mq_tagset_hw_idle_notify_enable // -- Begin function blk_mq_tagset_hw_idle_notify_enable
	.globl	blk_mq_tagset_hw_idle_notify_enable
	.p2align	2
	.type	blk_mq_tagset_hw_idle_notify_enable,@function
blk_mq_tagset_hw_idle_notify_enable:    // @blk_mq_tagset_hw_idle_notify_enable
.Lfunc_begin19:
	.loc	2 640 0                 // /mnt/disk/jenkins/workspace/release/opensource/component_code/vendor/huawei/extra/build/build_script/kirin_kernel_release/kernel/block/hisi-blk-busy-idle-notify.c:640:0
	.cfi_startproc
// %bb.0:
	//DEBUG_VALUE: blk_mq_tagset_hw_idle_notify_enable:tag_set <- $x0
	//DEBUG_VALUE: blk_mq_tagset_hw_idle_notify_enable:tag_set <- $x0
	//DEBUG_VALUE: blk_mq_tagset_hw_idle_notify_enable:enable <- $w1
	//DEBUG_VALUE: blk_mq_tagset_hw_idle_notify_enable:enable <- $w1
	//DEBUG_VALUE: blk_mq_tagset_hw_idle_notify_enable:blk_lld <- [DW_OP_plus_uconst 16, DW_OP_stack_value] $x0
	//DEBUG_VALUE: blk_mq_tagset_hw_idle_notify_enable:blk_lld <- [DW_OP_plus_uconst 16, DW_OP_stack_value] $x0
	.loc	2 643 41 prologue_end   // /mnt/disk/jenkins/workspace/release/opensource/component_code/vendor/huawei/extra/build/build_script/kirin_kernel_release/kernel/block/hisi-blk-busy-idle-notify.c:643:41
	cmp	w1, #0                  // =0
	cset	w8, ne
	.loc	2 643 38 is_stmt 0      // /mnt/disk/jenkins/workspace/release/opensource/component_code/vendor/huawei/extra/build/build_script/kirin_kernel_release/kernel/block/hisi-blk-busy-idle-notify.c:643:38
	strb	w8, [x0, #96]
	.loc	2 644 1 is_stmt 1       // /mnt/disk/jenkins/workspace/release/opensource/component_code/vendor/huawei/extra/build/build_script/kirin_kernel_release/kernel/block/hisi-blk-busy-idle-notify.c:644:1
	ret
.Ltmp388:
.Lfunc_end19:
	.size	blk_mq_tagset_hw_idle_notify_enable, .Lfunc_end19-blk_mq_tagset_hw_idle_notify_enable
	.cfi_endproc
                                        // -- End function
	.section	.text.hisi_queue_busy_idle_enable_store,"ax",@progbits
	.hidden	hisi_queue_busy_idle_enable_store // -- Begin function hisi_queue_busy_idle_enable_store
	.globl	hisi_queue_busy_idle_enable_store
	.p2align	2
	.type	hisi_queue_busy_idle_enable_store,@function
hisi_queue_busy_idle_enable_store:      // @hisi_queue_busy_idle_enable_store
.Lfunc_begin20:
	.loc	2 649 0                 // /mnt/disk/jenkins/workspace/release/opensource/component_code/vendor/huawei/extra/build/build_script/kirin_kernel_release/kernel/block/hisi-blk-busy-idle-notify.c:649:0
	.cfi_startproc
// %bb.0:
	sub	sp, sp, #48             // =48
	stp	x20, x19, [sp, #16]     // 16-byte Folded Spill
	stp	x29, x30, [sp, #32]     // 16-byte Folded Spill
	add	x29, sp, #32            // =32
	.cfi_def_cfa w29, 16
	.cfi_offset w30, -8
	.cfi_offset w29, -16
	.cfi_offset w19, -24
	.cfi_offset w20, -32
	//DEBUG_VALUE: hisi_queue_busy_idle_enable_store:q <- $x0
	//DEBUG_VALUE: hisi_queue_busy_idle_enable_store:page <- $x1
	//DEBUG_VALUE: hisi_queue_busy_idle_enable_store:count <- $x2
.Ltmp389:
	//DEBUG_VALUE: blk_queue_busy_idle_enable:q <- $x0
	//DEBUG_VALUE: blk_queue_busy_idle_enable:q <- $x0
	adrp	x8, __stack_chk_guard
	ldr	x8, [x8, :lo12:__stack_chk_guard]
	mov	x20, x0
.Ltmp390:
	//DEBUG_VALUE: blk_queue_busy_idle_enable:q <- $x20
	//DEBUG_VALUE: blk_queue_busy_idle_enable:q <- $x20
	.loc	2 653 8 prologue_end    // /mnt/disk/jenkins/workspace/release/opensource/component_code/vendor/huawei/extra/build/build_script/kirin_kernel_release/kernel/block/hisi-blk-busy-idle-notify.c:653:8
	mov	x0, sp
.Ltmp391:
	//DEBUG_VALUE: hisi_queue_busy_idle_enable_store:page <- $x1
	.loc	2 0 8 is_stmt 0         // /mnt/disk/jenkins/workspace/release/opensource/component_code/vendor/huawei/extra/build/build_script/kirin_kernel_release/kernel/block/hisi-blk-busy-idle-notify.c:0:8
	mov	x19, x2
	str	x8, [sp, #8]
.Ltmp392:
	//DEBUG_VALUE: hisi_queue_busy_idle_enable_store:count <- $x19
	//DEBUG_VALUE: hisi_queue_busy_idle_enable_store:page <- $x1
	//DEBUG_VALUE: hisi_queue_busy_idle_enable_store:q <- $x20
	//DEBUG_VALUE: hisi_queue_busy_idle_enable_store:val <- [DW_OP_deref] $sp
	.loc	2 653 8                 // /mnt/disk/jenkins/workspace/release/opensource/component_code/vendor/huawei/extra/build/build_script/kirin_kernel_release/kernel/block/hisi-blk-busy-idle-notify.c:653:8
	bl	queue_var_store
.Ltmp393:
	//DEBUG_VALUE: hisi_queue_busy_idle_enable_store:ret <- $x0
	.loc	2 654 17 is_stmt 1      // /mnt/disk/jenkins/workspace/release/opensource/component_code/vendor/huawei/extra/build/build_script/kirin_kernel_release/kernel/block/hisi-blk-busy-idle-notify.c:654:17
	tbnz	x0, #63, .LBB20_3
.Ltmp394:
// %bb.1:
	//DEBUG_VALUE: hisi_queue_busy_idle_enable_store:ret <- $x0
	//DEBUG_VALUE: hisi_queue_busy_idle_enable_store:val <- [DW_OP_deref] $sp
	//DEBUG_VALUE: hisi_queue_busy_idle_enable_store:q <- $x20
	//DEBUG_VALUE: hisi_queue_busy_idle_enable_store:count <- $x19
	.loc	2 0 0 is_stmt 0         // /mnt/disk/jenkins/workspace/release/opensource/component_code/vendor/huawei/extra/build/build_script/kirin_kernel_release/kernel/block/hisi-blk-busy-idle-notify.c:0:0
	ldr	x8, [sp]
.Ltmp395:
	//DEBUG_VALUE: hisi_queue_busy_idle_enable_store:val <- $x8
	.loc	2 654 17                // /mnt/disk/jenkins/workspace/release/opensource/component_code/vendor/huawei/extra/build/build_script/kirin_kernel_release/kernel/block/hisi-blk-busy-idle-notify.c:654:17
	cbz	x8, .LBB20_3
.Ltmp396:
// %bb.2:
	//DEBUG_VALUE: hisi_queue_busy_idle_enable_store:val <- $x8
	//DEBUG_VALUE: hisi_queue_busy_idle_enable_store:ret <- $x0
	//DEBUG_VALUE: hisi_queue_busy_idle_enable_store:q <- $x20
	//DEBUG_VALUE: hisi_queue_busy_idle_enable_store:count <- $x19
	.loc	2 655 3 is_stmt 1       // /mnt/disk/jenkins/workspace/release/opensource/component_code/vendor/huawei/extra/build/build_script/kirin_kernel_release/kernel/block/hisi-blk-busy-idle-notify.c:655:3
	adrp	x0, .L.str.10
.Ltmp397:
	adrp	x1, .L__func__.hisi_queue_busy_idle_enable_store
	add	x0, x0, :lo12:.L.str.10
	add	x1, x1, :lo12:.L__func__.hisi_queue_busy_idle_enable_store
	bl	printk
.Ltmp398:
	//DEBUG_VALUE: blk_queue_busy_idle_enable:enable <- 1
	.loc	2 612 32                // /mnt/disk/jenkins/workspace/release/opensource/component_code/vendor/huawei/extra/build/build_script/kirin_kernel_release/kernel/block/hisi-blk-busy-idle-notify.c:612:32
	mov	x0, x20
	bl	hisi_blk_get_lld
.Ltmp399:
	//DEBUG_VALUE: blk_queue_busy_idle_enable:blk_lld <- $x0
	.loc	2 0 0 is_stmt 0         // /mnt/disk/jenkins/workspace/release/opensource/component_code/vendor/huawei/extra/build/build_script/kirin_kernel_release/kernel/block/hisi-blk-busy-idle-notify.c:0:0
	ldr	x8, [x0, #24]
.Ltmp400:
	.loc	2 614 6 is_stmt 1       // /mnt/disk/jenkins/workspace/release/opensource/component_code/vendor/huawei/extra/build/build_script/kirin_kernel_release/kernel/block/hisi-blk-busy-idle-notify.c:614:6
	orr	x8, x8, #0x10
	b	.LBB20_4
.Ltmp401:
.LBB20_3:
	//DEBUG_VALUE: hisi_queue_busy_idle_enable_store:ret <- $x0
	//DEBUG_VALUE: hisi_queue_busy_idle_enable_store:q <- $x20
	//DEBUG_VALUE: hisi_queue_busy_idle_enable_store:count <- $x19
	.loc	2 658 3                 // /mnt/disk/jenkins/workspace/release/opensource/component_code/vendor/huawei/extra/build/build_script/kirin_kernel_release/kernel/block/hisi-blk-busy-idle-notify.c:658:3
	adrp	x0, .L.str.11
.Ltmp402:
	adrp	x1, .L__func__.hisi_queue_busy_idle_enable_store
	add	x0, x0, :lo12:.L.str.11
	add	x1, x1, :lo12:.L__func__.hisi_queue_busy_idle_enable_store
	bl	printk
.Ltmp403:
	//DEBUG_VALUE: blk_queue_busy_idle_enable:enable <- 0
	.loc	2 612 32                // /mnt/disk/jenkins/workspace/release/opensource/component_code/vendor/huawei/extra/build/build_script/kirin_kernel_release/kernel/block/hisi-blk-busy-idle-notify.c:612:32
	mov	x0, x20
	bl	hisi_blk_get_lld
.Ltmp404:
	//DEBUG_VALUE: blk_queue_busy_idle_enable:blk_lld <- $x0
	.loc	2 0 0 is_stmt 0         // /mnt/disk/jenkins/workspace/release/opensource/component_code/vendor/huawei/extra/build/build_script/kirin_kernel_release/kernel/block/hisi-blk-busy-idle-notify.c:0:0
	ldr	x8, [x0, #24]
.Ltmp405:
	.loc	2 614 6 is_stmt 1       // /mnt/disk/jenkins/workspace/release/opensource/component_code/vendor/huawei/extra/build/build_script/kirin_kernel_release/kernel/block/hisi-blk-busy-idle-notify.c:614:6
	and	x8, x8, #0xffffffffffffffef
.Ltmp406:
.LBB20_4:
	//DEBUG_VALUE: hisi_queue_busy_idle_enable_store:q <- $x20
	//DEBUG_VALUE: hisi_queue_busy_idle_enable_store:count <- $x19
	.loc	2 0 0 is_stmt 0         // /mnt/disk/jenkins/workspace/release/opensource/component_code/vendor/huawei/extra/build/build_script/kirin_kernel_release/kernel/block/hisi-blk-busy-idle-notify.c:0:0
	str	x8, [x0, #24]
	adrp	x9, __stack_chk_guard
	ldr	x8, [sp, #8]
	ldr	x9, [x9, :lo12:__stack_chk_guard]
	cmp	x9, x8
	b.ne	.LBB20_6
.Ltmp407:
// %bb.5:
	//DEBUG_VALUE: hisi_queue_busy_idle_enable_store:q <- $x20
	//DEBUG_VALUE: hisi_queue_busy_idle_enable_store:count <- $x19
	.loc	2 661 2 is_stmt 1       // /mnt/disk/jenkins/workspace/release/opensource/component_code/vendor/huawei/extra/build/build_script/kirin_kernel_release/kernel/block/hisi-blk-busy-idle-notify.c:661:2
	mov	x0, x19
	ldp	x29, x30, [sp, #32]     // 16-byte Folded Reload
	ldp	x20, x19, [sp, #16]     // 16-byte Folded Reload
.Ltmp408:
	add	sp, sp, #48             // =48
	ret
.Ltmp409:
.LBB20_6:
	//DEBUG_VALUE: hisi_queue_busy_idle_enable_store:q <- $x20
	//DEBUG_VALUE: hisi_queue_busy_idle_enable_store:count <- $x19
	.loc	2 0 2 is_stmt 0         // /mnt/disk/jenkins/workspace/release/opensource/component_code/vendor/huawei/extra/build/build_script/kirin_kernel_release/kernel/block/hisi-blk-busy-idle-notify.c:0:2
	bl	__stack_chk_fail
.Lfunc_end20:
	.size	hisi_queue_busy_idle_enable_store, .Lfunc_end20-hisi_queue_busy_idle_enable_store
	.cfi_endproc
                                        // -- End function
	.section	.text.hisi_queue_busy_idle_statistic_reset_store,"ax",@progbits
	.hidden	hisi_queue_busy_idle_statistic_reset_store // -- Begin function hisi_queue_busy_idle_statistic_reset_store
	.globl	hisi_queue_busy_idle_statistic_reset_store
	.p2align	2
	.type	hisi_queue_busy_idle_statistic_reset_store,@function
hisi_queue_busy_idle_statistic_reset_store: // @hisi_queue_busy_idle_statistic_reset_store
.Lfunc_begin21:
	.loc	2 666 0 is_stmt 1       // /mnt/disk/jenkins/workspace/release/opensource/component_code/vendor/huawei/extra/build/build_script/kirin_kernel_release/kernel/block/hisi-blk-busy-idle-notify.c:666:0
	.cfi_startproc
// %bb.0:
	sub	sp, sp, #64             // =64
	str	x21, [sp, #16]          // 8-byte Folded Spill
	stp	x20, x19, [sp, #32]     // 16-byte Folded Spill
	stp	x29, x30, [sp, #48]     // 16-byte Folded Spill
	add	x29, sp, #48            // =48
	.cfi_def_cfa w29, 16
	.cfi_offset w30, -8
	.cfi_offset w29, -16
	.cfi_offset w19, -24
	.cfi_offset w20, -32
	.cfi_offset w21, -48
	//DEBUG_VALUE: hisi_queue_busy_idle_statistic_reset_store:q <- $x0
	//DEBUG_VALUE: hisi_queue_busy_idle_statistic_reset_store:page <- $x1
	//DEBUG_VALUE: hisi_queue_busy_idle_statistic_reset_store:count <- $x2
	adrp	x8, __stack_chk_guard
	ldr	x8, [x8, :lo12:__stack_chk_guard]
	mov	x19, x2
	mov	x21, x1
	str	x8, [sp, #8]
.Ltmp410:
	//DEBUG_VALUE: hisi_queue_busy_idle_statistic_reset_store:count <- $x19
	//DEBUG_VALUE: hisi_queue_busy_idle_statistic_reset_store:page <- $x21
	//DEBUG_VALUE: hisi_queue_busy_idle_statistic_reset_store:q <- $x0
	//DEBUG_VALUE: hisi_queue_busy_idle_statistic_reset_store:q <- $x0
	.loc	2 669 28 prologue_end   // /mnt/disk/jenkins/workspace/release/opensource/component_code/vendor/huawei/extra/build/build_script/kirin_kernel_release/kernel/block/hisi-blk-busy-idle-notify.c:669:28
	bl	hisi_blk_get_lld
.Ltmp411:
	mov	x20, x0
.Ltmp412:
	//DEBUG_VALUE: hisi_queue_busy_idle_statistic_reset_store:lld <- $x20
	//DEBUG_VALUE: hisi_queue_busy_idle_statistic_reset_store:val <- [DW_OP_deref] $sp
	.loc	2 671 8                 // /mnt/disk/jenkins/workspace/release/opensource/component_code/vendor/huawei/extra/build/build_script/kirin_kernel_release/kernel/block/hisi-blk-busy-idle-notify.c:671:8
	mov	x0, sp
	mov	x1, x21
.Ltmp413:
	//DEBUG_VALUE: hisi_queue_busy_idle_statistic_reset_store:page <- $x1
	mov	x2, x19
	bl	queue_var_store
.Ltmp414:
	//DEBUG_VALUE: hisi_queue_busy_idle_statistic_reset_store:ret <- $x0
	.loc	2 672 17                // /mnt/disk/jenkins/workspace/release/opensource/component_code/vendor/huawei/extra/build/build_script/kirin_kernel_release/kernel/block/hisi-blk-busy-idle-notify.c:672:17
	tbnz	x0, #63, .LBB21_3
.Ltmp415:
// %bb.1:
	//DEBUG_VALUE: hisi_queue_busy_idle_statistic_reset_store:ret <- $x0
	//DEBUG_VALUE: hisi_queue_busy_idle_statistic_reset_store:val <- [DW_OP_deref] $sp
	//DEBUG_VALUE: hisi_queue_busy_idle_statistic_reset_store:lld <- $x20
	//DEBUG_VALUE: hisi_queue_busy_idle_statistic_reset_store:count <- $x19
	.loc	2 0 0 is_stmt 0         // /mnt/disk/jenkins/workspace/release/opensource/component_code/vendor/huawei/extra/build/build_script/kirin_kernel_release/kernel/block/hisi-blk-busy-idle-notify.c:0:0
	ldr	x8, [sp]
.Ltmp416:
	//DEBUG_VALUE: hisi_queue_busy_idle_statistic_reset_store:val <- $x8
	.loc	2 672 17                // /mnt/disk/jenkins/workspace/release/opensource/component_code/vendor/huawei/extra/build/build_script/kirin_kernel_release/kernel/block/hisi-blk-busy-idle-notify.c:672:17
	cbz	x8, .LBB21_3
.Ltmp417:
// %bb.2:
	//DEBUG_VALUE: hisi_queue_busy_idle_statistic_reset_store:val <- $x8
	//DEBUG_VALUE: hisi_queue_busy_idle_statistic_reset_store:ret <- $x0
	//DEBUG_VALUE: hisi_queue_busy_idle_statistic_reset_store:lld <- $x20
	//DEBUG_VALUE: hisi_queue_busy_idle_statistic_reset_store:count <- $x19
	.loc	2 673 3 is_stmt 1       // /mnt/disk/jenkins/workspace/release/opensource/component_code/vendor/huawei/extra/build/build_script/kirin_kernel_release/kernel/block/hisi-blk-busy-idle-notify.c:673:3
	adrp	x0, .L.str.12
.Ltmp418:
	adrp	x1, .L__func__.hisi_queue_busy_idle_statistic_reset_store
	add	x0, x0, :lo12:.L.str.12
	add	x1, x1, :lo12:.L__func__.hisi_queue_busy_idle_statistic_reset_store
	bl	printk
.Ltmp419:
	.loc	2 675 34                // /mnt/disk/jenkins/workspace/release/opensource/component_code/vendor/huawei/extra/build/build_script/kirin_kernel_release/kernel/block/hisi-blk-busy-idle-notify.c:675:34
	stp	xzr, xzr, [x20, #392]
	str	xzr, [x20, #384]
	.loc	2 678 3                 // /mnt/disk/jenkins/workspace/release/opensource/component_code/vendor/huawei/extra/build/build_script/kirin_kernel_release/kernel/block/hisi-blk-busy-idle-notify.c:678:3
	str	xzr, [x20, #552]
	str	xzr, [x20, #544]
	str	xzr, [x20, #536]
	str	xzr, [x20, #528]
	str	xzr, [x20, #520]
	stp	xzr, xzr, [x20, #504]
	stp	xzr, xzr, [x20, #488]
	str	xzr, [x20, #480]
.Ltmp420:
.LBB21_3:
	//DEBUG_VALUE: hisi_queue_busy_idle_statistic_reset_store:lld <- $x20
	//DEBUG_VALUE: hisi_queue_busy_idle_statistic_reset_store:count <- $x19
	.loc	2 0 3 is_stmt 0         // /mnt/disk/jenkins/workspace/release/opensource/component_code/vendor/huawei/extra/build/build_script/kirin_kernel_release/kernel/block/hisi-blk-busy-idle-notify.c:0:3
	adrp	x9, __stack_chk_guard
	ldr	x8, [sp, #8]
	ldr	x9, [x9, :lo12:__stack_chk_guard]
	cmp	x9, x8
	b.ne	.LBB21_5
.Ltmp421:
// %bb.4:
	//DEBUG_VALUE: hisi_queue_busy_idle_statistic_reset_store:lld <- $x20
	//DEBUG_VALUE: hisi_queue_busy_idle_statistic_reset_store:count <- $x19
	.loc	2 682 2 is_stmt 1       // /mnt/disk/jenkins/workspace/release/opensource/component_code/vendor/huawei/extra/build/build_script/kirin_kernel_release/kernel/block/hisi-blk-busy-idle-notify.c:682:2
	mov	x0, x19
	ldp	x29, x30, [sp, #48]     // 16-byte Folded Reload
	ldp	x20, x19, [sp, #32]     // 16-byte Folded Reload
.Ltmp422:
	ldr	x21, [sp, #16]          // 8-byte Folded Reload
	add	sp, sp, #64             // =64
	ret
.Ltmp423:
.LBB21_5:
	//DEBUG_VALUE: hisi_queue_busy_idle_statistic_reset_store:lld <- $x20
	//DEBUG_VALUE: hisi_queue_busy_idle_statistic_reset_store:count <- $x19
	.loc	2 0 2 is_stmt 0         // /mnt/disk/jenkins/workspace/release/opensource/component_code/vendor/huawei/extra/build/build_script/kirin_kernel_release/kernel/block/hisi-blk-busy-idle-notify.c:0:2
	bl	__stack_chk_fail
.Lfunc_end21:
	.size	hisi_queue_busy_idle_statistic_reset_store, .Lfunc_end21-hisi_queue_busy_idle_statistic_reset_store
	.cfi_endproc
                                        // -- End function
	.section	.text.hisi_queue_busy_idle_statistic_show,"ax",@progbits
	.hidden	hisi_queue_busy_idle_statistic_show // -- Begin function hisi_queue_busy_idle_statistic_show
	.globl	hisi_queue_busy_idle_statistic_show
	.p2align	2
	.type	hisi_queue_busy_idle_statistic_show,@function
hisi_queue_busy_idle_statistic_show:    // @hisi_queue_busy_idle_statistic_show
.Lfunc_begin22:
	.loc	2 686 0 is_stmt 1       // /mnt/disk/jenkins/workspace/release/opensource/component_code/vendor/huawei/extra/build/build_script/kirin_kernel_release/kernel/block/hisi-blk-busy-idle-notify.c:686:0
	.cfi_startproc
// %bb.0:
	stp	x22, x21, [sp, #-48]!   // 16-byte Folded Spill
	stp	x20, x19, [sp, #16]     // 16-byte Folded Spill
	stp	x29, x30, [sp, #32]     // 16-byte Folded Spill
	add	x29, sp, #32            // =32
	.cfi_def_cfa w29, 16
	.cfi_offset w30, -8
	.cfi_offset w29, -16
	.cfi_offset w19, -24
	.cfi_offset w20, -32
	.cfi_offset w21, -40
	.cfi_offset w22, -48
	//DEBUG_VALUE: hisi_queue_busy_idle_statistic_show:q <- $x0
	//DEBUG_VALUE: hisi_queue_busy_idle_statistic_show:page <- $x1
	mov	x19, x1
.Ltmp424:
	//DEBUG_VALUE: hisi_queue_busy_idle_statistic_show:offset <- 0
	//DEBUG_VALUE: hisi_queue_busy_idle_statistic_show:page <- $x19
	//DEBUG_VALUE: hisi_queue_busy_idle_statistic_show:q <- $x0
	//DEBUG_VALUE: hisi_queue_busy_idle_statistic_show:q <- $x0
	.loc	2 688 28 prologue_end   // /mnt/disk/jenkins/workspace/release/opensource/component_code/vendor/huawei/extra/build/build_script/kirin_kernel_release/kernel/block/hisi-blk-busy-idle-notify.c:688:28
	bl	hisi_blk_get_lld
.Ltmp425:
	.loc	2 693 29                // /mnt/disk/jenkins/workspace/release/opensource/component_code/vendor/huawei/extra/build/build_script/kirin_kernel_release/kernel/block/hisi-blk-busy-idle-notify.c:693:29
	ldp	x8, x9, [x0, #384]
	mov	x10, #13531
	movk	x10, #55222, lsl #16
	movk	x10, #56962, lsl #32
	movk	x10, #17179, lsl #48
.Ltmp426:
	//DEBUG_VALUE: ktime_divns:div <- 1000000
	//DEBUG_VALUE: ktime_divns:kt <- $x8
	//DEBUG_VALUE: ktime_to_ms:kt <- $x8
	.loc	45 169 12               // /mnt/disk/jenkins/workspace/release/opensource/component_code/vendor/huawei/extra/build/build_script/kirin_kernel_release/kernel/include/linux/ktime.h:169:12
	smulh	x8, x8, x10
.Ltmp427:
	//DEBUG_VALUE: ktime_divns:div <- 1000000
	//DEBUG_VALUE: ktime_divns:kt <- $x9
	//DEBUG_VALUE: ktime_to_ms:kt <- $x9
	.loc	45 169 12 is_stmt 0     // /mnt/disk/jenkins/workspace/release/opensource/component_code/vendor/huawei/extra/build/build_script/kirin_kernel_release/kernel/include/linux/ktime.h:169:12
	smulh	x9, x9, x10
.Ltmp428:
	.loc	45 169 12               // /mnt/disk/jenkins/workspace/release/opensource/component_code/vendor/huawei/extra/build/build_script/kirin_kernel_release/kernel/include/linux/ktime.h:169:12
	asr	x10, x8, #18
.Ltmp429:
	//DEBUG_VALUE: ktime_divns:div <- 1000000
	.loc	45 169 12               // /mnt/disk/jenkins/workspace/release/opensource/component_code/vendor/huawei/extra/build/build_script/kirin_kernel_release/kernel/include/linux/ktime.h:169:12
	asr	x11, x9, #18
.Ltmp430:
	//DEBUG_VALUE: ktime_divns:div <- 1000000
	.loc	2 691 12 is_stmt 1      // /mnt/disk/jenkins/workspace/release/opensource/component_code/vendor/huawei/extra/build/build_script/kirin_kernel_release/kernel/block/hisi-blk-busy-idle-notify.c:691:12
	adrp	x2, .L.str.13
	.loc	2 688 28                // /mnt/disk/jenkins/workspace/release/opensource/component_code/vendor/huawei/extra/build/build_script/kirin_kernel_release/kernel/block/hisi-blk-busy-idle-notify.c:688:28
	mov	x20, x0
.Ltmp431:
	//DEBUG_VALUE: hisi_queue_busy_idle_statistic_show:blk_idle <- [DW_OP_plus_uconst 80, DW_OP_stack_value] $x20
	//DEBUG_VALUE: hisi_queue_busy_idle_statistic_show:lld <- $x20
	.loc	45 169 12               // /mnt/disk/jenkins/workspace/release/opensource/component_code/vendor/huawei/extra/build/build_script/kirin_kernel_release/kernel/include/linux/ktime.h:169:12
	add	x3, x10, x8, lsr #63
.Ltmp432:
	//DEBUG_VALUE: ktime_divns:div <- 1000000
	.loc	45 169 12 is_stmt 0     // /mnt/disk/jenkins/workspace/release/opensource/component_code/vendor/huawei/extra/build/build_script/kirin_kernel_release/kernel/include/linux/ktime.h:169:12
	add	x4, x11, x9, lsr #63
.Ltmp433:
	//DEBUG_VALUE: ktime_divns:div <- 1000000
	.loc	2 691 12 is_stmt 1      // /mnt/disk/jenkins/workspace/release/opensource/component_code/vendor/huawei/extra/build/build_script/kirin_kernel_release/kernel/block/hisi-blk-busy-idle-notify.c:691:12
	add	x2, x2, :lo12:.L.str.13
	orr	w1, wzr, #0x1000
	mov	x0, x19
	orr	w21, wzr, #0x1000
	bl	snprintf
	.loc	2 696 48                // /mnt/disk/jenkins/workspace/release/opensource/component_code/vendor/huawei/extra/build/build_script/kirin_kernel_release/kernel/block/hisi-blk-busy-idle-notify.c:696:48
	ldr	x3, [x20, #400]
                                        // kill: def $w0 killed $w0 def $x0
	.loc	2 691 12                // /mnt/disk/jenkins/workspace/release/opensource/component_code/vendor/huawei/extra/build/build_script/kirin_kernel_release/kernel/block/hisi-blk-busy-idle-notify.c:691:12
	sxtw	x22, w0
.Ltmp434:
	//DEBUG_VALUE: hisi_queue_busy_idle_statistic_show:offset <- $x22
	.loc	2 695 12                // /mnt/disk/jenkins/workspace/release/opensource/component_code/vendor/huawei/extra/build/build_script/kirin_kernel_release/kernel/block/hisi-blk-busy-idle-notify.c:695:12
	adrp	x2, .L.str.14
	.loc	2 695 26 is_stmt 0      // /mnt/disk/jenkins/workspace/release/opensource/component_code/vendor/huawei/extra/build/build_script/kirin_kernel_release/kernel/block/hisi-blk-busy-idle-notify.c:695:26
	add	x0, x19, x22
	.loc	2 695 55                // /mnt/disk/jenkins/workspace/release/opensource/component_code/vendor/huawei/extra/build/build_script/kirin_kernel_release/kernel/block/hisi-blk-busy-idle-notify.c:695:55
	sub	x1, x21, x22
	.loc	2 695 12                // /mnt/disk/jenkins/workspace/release/opensource/component_code/vendor/huawei/extra/build/build_script/kirin_kernel_release/kernel/block/hisi-blk-busy-idle-notify.c:695:12
	add	x2, x2, :lo12:.L.str.14
	bl	snprintf
	.loc	2 695 9                 // /mnt/disk/jenkins/workspace/release/opensource/component_code/vendor/huawei/extra/build/build_script/kirin_kernel_release/kernel/block/hisi-blk-busy-idle-notify.c:695:9
	add	x22, x22, w0, sxtw
.Ltmp435:
	//DEBUG_VALUE: hisi_queue_busy_idle_statistic_show:offset <- $x22
	.loc	2 697 12 is_stmt 1      // /mnt/disk/jenkins/workspace/release/opensource/component_code/vendor/huawei/extra/build/build_script/kirin_kernel_release/kernel/block/hisi-blk-busy-idle-notify.c:697:12
	adrp	x2, .L.str.15
	.loc	2 697 26 is_stmt 0      // /mnt/disk/jenkins/workspace/release/opensource/component_code/vendor/huawei/extra/build/build_script/kirin_kernel_release/kernel/block/hisi-blk-busy-idle-notify.c:697:26
	add	x0, x19, x22
	.loc	2 697 55                // /mnt/disk/jenkins/workspace/release/opensource/component_code/vendor/huawei/extra/build/build_script/kirin_kernel_release/kernel/block/hisi-blk-busy-idle-notify.c:697:55
	sub	x1, x21, x22
	.loc	2 697 12                // /mnt/disk/jenkins/workspace/release/opensource/component_code/vendor/huawei/extra/build/build_script/kirin_kernel_release/kernel/block/hisi-blk-busy-idle-notify.c:697:12
	add	x2, x2, :lo12:.L.str.15
	bl	snprintf
	.loc	2 700 44 is_stmt 1      // /mnt/disk/jenkins/workspace/release/opensource/component_code/vendor/huawei/extra/build/build_script/kirin_kernel_release/kernel/block/hisi-blk-busy-idle-notify.c:700:44
	ldr	x3, [x20, #552]
	.loc	2 697 9                 // /mnt/disk/jenkins/workspace/release/opensource/component_code/vendor/huawei/extra/build/build_script/kirin_kernel_release/kernel/block/hisi-blk-busy-idle-notify.c:697:9
	add	x22, x22, w0, sxtw
.Ltmp436:
	//DEBUG_VALUE: hisi_queue_busy_idle_statistic_show:offset <- $x22
	.loc	2 699 12                // /mnt/disk/jenkins/workspace/release/opensource/component_code/vendor/huawei/extra/build/build_script/kirin_kernel_release/kernel/block/hisi-blk-busy-idle-notify.c:699:12
	adrp	x2, .L.str.16
	.loc	2 699 26 is_stmt 0      // /mnt/disk/jenkins/workspace/release/opensource/component_code/vendor/huawei/extra/build/build_script/kirin_kernel_release/kernel/block/hisi-blk-busy-idle-notify.c:699:26
	add	x0, x19, x22
	.loc	2 699 55                // /mnt/disk/jenkins/workspace/release/opensource/component_code/vendor/huawei/extra/build/build_script/kirin_kernel_release/kernel/block/hisi-blk-busy-idle-notify.c:699:55
	sub	x1, x21, x22
	.loc	2 699 12                // /mnt/disk/jenkins/workspace/release/opensource/component_code/vendor/huawei/extra/build/build_script/kirin_kernel_release/kernel/block/hisi-blk-busy-idle-notify.c:699:12
	add	x2, x2, :lo12:.L.str.16
	bl	snprintf
	.loc	2 703 3 is_stmt 1       // /mnt/disk/jenkins/workspace/release/opensource/component_code/vendor/huawei/extra/build/build_script/kirin_kernel_release/kernel/block/hisi-blk-busy-idle-notify.c:703:3
	ldr	x3, [x20, #480]
	.loc	2 699 9                 // /mnt/disk/jenkins/workspace/release/opensource/component_code/vendor/huawei/extra/build/build_script/kirin_kernel_release/kernel/block/hisi-blk-busy-idle-notify.c:699:9
	add	x22, x22, w0, sxtw
.Ltmp437:
	//DEBUG_VALUE: hisi_queue_busy_idle_statistic_show:offset <- $x22
	.loc	2 701 12                // /mnt/disk/jenkins/workspace/release/opensource/component_code/vendor/huawei/extra/build/build_script/kirin_kernel_release/kernel/block/hisi-blk-busy-idle-notify.c:701:12
	adrp	x2, .L.str.17
	.loc	2 701 26 is_stmt 0      // /mnt/disk/jenkins/workspace/release/opensource/component_code/vendor/huawei/extra/build/build_script/kirin_kernel_release/kernel/block/hisi-blk-busy-idle-notify.c:701:26
	add	x0, x19, x22
	.loc	2 701 55                // /mnt/disk/jenkins/workspace/release/opensource/component_code/vendor/huawei/extra/build/build_script/kirin_kernel_release/kernel/block/hisi-blk-busy-idle-notify.c:701:55
	sub	x1, x21, x22
	.loc	2 701 12                // /mnt/disk/jenkins/workspace/release/opensource/component_code/vendor/huawei/extra/build/build_script/kirin_kernel_release/kernel/block/hisi-blk-busy-idle-notify.c:701:12
	add	x2, x2, :lo12:.L.str.17
	bl	snprintf
	.loc	2 706 3 is_stmt 1       // /mnt/disk/jenkins/workspace/release/opensource/component_code/vendor/huawei/extra/build/build_script/kirin_kernel_release/kernel/block/hisi-blk-busy-idle-notify.c:706:3
	ldr	x3, [x20, #488]
	.loc	2 701 9                 // /mnt/disk/jenkins/workspace/release/opensource/component_code/vendor/huawei/extra/build/build_script/kirin_kernel_release/kernel/block/hisi-blk-busy-idle-notify.c:701:9
	add	x22, x22, w0, sxtw
.Ltmp438:
	//DEBUG_VALUE: hisi_queue_busy_idle_statistic_show:offset <- $x22
	.loc	2 704 12                // /mnt/disk/jenkins/workspace/release/opensource/component_code/vendor/huawei/extra/build/build_script/kirin_kernel_release/kernel/block/hisi-blk-busy-idle-notify.c:704:12
	adrp	x2, .L.str.18
	.loc	2 704 26 is_stmt 0      // /mnt/disk/jenkins/workspace/release/opensource/component_code/vendor/huawei/extra/build/build_script/kirin_kernel_release/kernel/block/hisi-blk-busy-idle-notify.c:704:26
	add	x0, x19, x22
	.loc	2 704 55                // /mnt/disk/jenkins/workspace/release/opensource/component_code/vendor/huawei/extra/build/build_script/kirin_kernel_release/kernel/block/hisi-blk-busy-idle-notify.c:704:55
	sub	x1, x21, x22
	.loc	2 704 12                // /mnt/disk/jenkins/workspace/release/opensource/component_code/vendor/huawei/extra/build/build_script/kirin_kernel_release/kernel/block/hisi-blk-busy-idle-notify.c:704:12
	add	x2, x2, :lo12:.L.str.18
	bl	snprintf
	.loc	2 709 3 is_stmt 1       // /mnt/disk/jenkins/workspace/release/opensource/component_code/vendor/huawei/extra/build/build_script/kirin_kernel_release/kernel/block/hisi-blk-busy-idle-notify.c:709:3
	ldr	x3, [x20, #496]
	.loc	2 704 9                 // /mnt/disk/jenkins/workspace/release/opensource/component_code/vendor/huawei/extra/build/build_script/kirin_kernel_release/kernel/block/hisi-blk-busy-idle-notify.c:704:9
	add	x22, x22, w0, sxtw
.Ltmp439:
	//DEBUG_VALUE: hisi_queue_busy_idle_statistic_show:offset <- $x22
	.loc	2 707 12                // /mnt/disk/jenkins/workspace/release/opensource/component_code/vendor/huawei/extra/build/build_script/kirin_kernel_release/kernel/block/hisi-blk-busy-idle-notify.c:707:12
	adrp	x2, .L.str.19
	.loc	2 707 26 is_stmt 0      // /mnt/disk/jenkins/workspace/release/opensource/component_code/vendor/huawei/extra/build/build_script/kirin_kernel_release/kernel/block/hisi-blk-busy-idle-notify.c:707:26
	add	x0, x19, x22
	.loc	2 707 55                // /mnt/disk/jenkins/workspace/release/opensource/component_code/vendor/huawei/extra/build/build_script/kirin_kernel_release/kernel/block/hisi-blk-busy-idle-notify.c:707:55
	sub	x1, x21, x22
	.loc	2 707 12                // /mnt/disk/jenkins/workspace/release/opensource/component_code/vendor/huawei/extra/build/build_script/kirin_kernel_release/kernel/block/hisi-blk-busy-idle-notify.c:707:12
	add	x2, x2, :lo12:.L.str.19
	bl	snprintf
	.loc	2 712 3 is_stmt 1       // /mnt/disk/jenkins/workspace/release/opensource/component_code/vendor/huawei/extra/build/build_script/kirin_kernel_release/kernel/block/hisi-blk-busy-idle-notify.c:712:3
	ldr	x3, [x20, #504]
	.loc	2 707 9                 // /mnt/disk/jenkins/workspace/release/opensource/component_code/vendor/huawei/extra/build/build_script/kirin_kernel_release/kernel/block/hisi-blk-busy-idle-notify.c:707:9
	add	x22, x22, w0, sxtw
.Ltmp440:
	//DEBUG_VALUE: hisi_queue_busy_idle_statistic_show:offset <- $x22
	.loc	2 710 12                // /mnt/disk/jenkins/workspace/release/opensource/component_code/vendor/huawei/extra/build/build_script/kirin_kernel_release/kernel/block/hisi-blk-busy-idle-notify.c:710:12
	adrp	x2, .L.str.20
	.loc	2 710 26 is_stmt 0      // /mnt/disk/jenkins/workspace/release/opensource/component_code/vendor/huawei/extra/build/build_script/kirin_kernel_release/kernel/block/hisi-blk-busy-idle-notify.c:710:26
	add	x0, x19, x22
	.loc	2 710 55                // /mnt/disk/jenkins/workspace/release/opensource/component_code/vendor/huawei/extra/build/build_script/kirin_kernel_release/kernel/block/hisi-blk-busy-idle-notify.c:710:55
	sub	x1, x21, x22
	.loc	2 710 12                // /mnt/disk/jenkins/workspace/release/opensource/component_code/vendor/huawei/extra/build/build_script/kirin_kernel_release/kernel/block/hisi-blk-busy-idle-notify.c:710:12
	add	x2, x2, :lo12:.L.str.20
	bl	snprintf
	.loc	2 715 3 is_stmt 1       // /mnt/disk/jenkins/workspace/release/opensource/component_code/vendor/huawei/extra/build/build_script/kirin_kernel_release/kernel/block/hisi-blk-busy-idle-notify.c:715:3
	ldr	x3, [x20, #512]
	.loc	2 710 9                 // /mnt/disk/jenkins/workspace/release/opensource/component_code/vendor/huawei/extra/build/build_script/kirin_kernel_release/kernel/block/hisi-blk-busy-idle-notify.c:710:9
	add	x22, x22, w0, sxtw
.Ltmp441:
	//DEBUG_VALUE: hisi_queue_busy_idle_statistic_show:offset <- $x22
	.loc	2 713 12                // /mnt/disk/jenkins/workspace/release/opensource/component_code/vendor/huawei/extra/build/build_script/kirin_kernel_release/kernel/block/hisi-blk-busy-idle-notify.c:713:12
	adrp	x2, .L.str.21
	.loc	2 713 26 is_stmt 0      // /mnt/disk/jenkins/workspace/release/opensource/component_code/vendor/huawei/extra/build/build_script/kirin_kernel_release/kernel/block/hisi-blk-busy-idle-notify.c:713:26
	add	x0, x19, x22
	.loc	2 713 55                // /mnt/disk/jenkins/workspace/release/opensource/component_code/vendor/huawei/extra/build/build_script/kirin_kernel_release/kernel/block/hisi-blk-busy-idle-notify.c:713:55
	sub	x1, x21, x22
	.loc	2 713 12                // /mnt/disk/jenkins/workspace/release/opensource/component_code/vendor/huawei/extra/build/build_script/kirin_kernel_release/kernel/block/hisi-blk-busy-idle-notify.c:713:12
	add	x2, x2, :lo12:.L.str.21
	bl	snprintf
	.loc	2 718 3 is_stmt 1       // /mnt/disk/jenkins/workspace/release/opensource/component_code/vendor/huawei/extra/build/build_script/kirin_kernel_release/kernel/block/hisi-blk-busy-idle-notify.c:718:3
	ldr	x3, [x20, #520]
	.loc	2 713 9                 // /mnt/disk/jenkins/workspace/release/opensource/component_code/vendor/huawei/extra/build/build_script/kirin_kernel_release/kernel/block/hisi-blk-busy-idle-notify.c:713:9
	add	x22, x22, w0, sxtw
.Ltmp442:
	//DEBUG_VALUE: hisi_queue_busy_idle_statistic_show:offset <- $x22
	.loc	2 716 12                // /mnt/disk/jenkins/workspace/release/opensource/component_code/vendor/huawei/extra/build/build_script/kirin_kernel_release/kernel/block/hisi-blk-busy-idle-notify.c:716:12
	adrp	x2, .L.str.22
	.loc	2 716 26 is_stmt 0      // /mnt/disk/jenkins/workspace/release/opensource/component_code/vendor/huawei/extra/build/build_script/kirin_kernel_release/kernel/block/hisi-blk-busy-idle-notify.c:716:26
	add	x0, x19, x22
	.loc	2 716 55                // /mnt/disk/jenkins/workspace/release/opensource/component_code/vendor/huawei/extra/build/build_script/kirin_kernel_release/kernel/block/hisi-blk-busy-idle-notify.c:716:55
	sub	x1, x21, x22
	.loc	2 716 12                // /mnt/disk/jenkins/workspace/release/opensource/component_code/vendor/huawei/extra/build/build_script/kirin_kernel_release/kernel/block/hisi-blk-busy-idle-notify.c:716:12
	add	x2, x2, :lo12:.L.str.22
	bl	snprintf
	.loc	2 721 3 is_stmt 1       // /mnt/disk/jenkins/workspace/release/opensource/component_code/vendor/huawei/extra/build/build_script/kirin_kernel_release/kernel/block/hisi-blk-busy-idle-notify.c:721:3
	ldr	x3, [x20, #528]
	.loc	2 716 9                 // /mnt/disk/jenkins/workspace/release/opensource/component_code/vendor/huawei/extra/build/build_script/kirin_kernel_release/kernel/block/hisi-blk-busy-idle-notify.c:716:9
	add	x22, x22, w0, sxtw
.Ltmp443:
	//DEBUG_VALUE: hisi_queue_busy_idle_statistic_show:offset <- $x22
	.loc	2 719 12                // /mnt/disk/jenkins/workspace/release/opensource/component_code/vendor/huawei/extra/build/build_script/kirin_kernel_release/kernel/block/hisi-blk-busy-idle-notify.c:719:12
	adrp	x2, .L.str.23
	.loc	2 719 26 is_stmt 0      // /mnt/disk/jenkins/workspace/release/opensource/component_code/vendor/huawei/extra/build/build_script/kirin_kernel_release/kernel/block/hisi-blk-busy-idle-notify.c:719:26
	add	x0, x19, x22
	.loc	2 719 55                // /mnt/disk/jenkins/workspace/release/opensource/component_code/vendor/huawei/extra/build/build_script/kirin_kernel_release/kernel/block/hisi-blk-busy-idle-notify.c:719:55
	sub	x1, x21, x22
	.loc	2 719 12                // /mnt/disk/jenkins/workspace/release/opensource/component_code/vendor/huawei/extra/build/build_script/kirin_kernel_release/kernel/block/hisi-blk-busy-idle-notify.c:719:12
	add	x2, x2, :lo12:.L.str.23
	bl	snprintf
	.loc	2 724 3 is_stmt 1       // /mnt/disk/jenkins/workspace/release/opensource/component_code/vendor/huawei/extra/build/build_script/kirin_kernel_release/kernel/block/hisi-blk-busy-idle-notify.c:724:3
	ldr	x3, [x20, #536]
	.loc	2 719 9                 // /mnt/disk/jenkins/workspace/release/opensource/component_code/vendor/huawei/extra/build/build_script/kirin_kernel_release/kernel/block/hisi-blk-busy-idle-notify.c:719:9
	add	x22, x22, w0, sxtw
.Ltmp444:
	//DEBUG_VALUE: hisi_queue_busy_idle_statistic_show:offset <- $x22
	.loc	2 722 12                // /mnt/disk/jenkins/workspace/release/opensource/component_code/vendor/huawei/extra/build/build_script/kirin_kernel_release/kernel/block/hisi-blk-busy-idle-notify.c:722:12
	adrp	x2, .L.str.24
	.loc	2 722 26 is_stmt 0      // /mnt/disk/jenkins/workspace/release/opensource/component_code/vendor/huawei/extra/build/build_script/kirin_kernel_release/kernel/block/hisi-blk-busy-idle-notify.c:722:26
	add	x0, x19, x22
	.loc	2 722 55                // /mnt/disk/jenkins/workspace/release/opensource/component_code/vendor/huawei/extra/build/build_script/kirin_kernel_release/kernel/block/hisi-blk-busy-idle-notify.c:722:55
	sub	x1, x21, x22
	.loc	2 722 12                // /mnt/disk/jenkins/workspace/release/opensource/component_code/vendor/huawei/extra/build/build_script/kirin_kernel_release/kernel/block/hisi-blk-busy-idle-notify.c:722:12
	add	x2, x2, :lo12:.L.str.24
	bl	snprintf
	.loc	2 727 3 is_stmt 1       // /mnt/disk/jenkins/workspace/release/opensource/component_code/vendor/huawei/extra/build/build_script/kirin_kernel_release/kernel/block/hisi-blk-busy-idle-notify.c:727:3
	ldr	x3, [x20, #544]
	.loc	2 722 9                 // /mnt/disk/jenkins/workspace/release/opensource/component_code/vendor/huawei/extra/build/build_script/kirin_kernel_release/kernel/block/hisi-blk-busy-idle-notify.c:722:9
	add	x22, x22, w0, sxtw
.Ltmp445:
	//DEBUG_VALUE: hisi_queue_busy_idle_statistic_show:offset <- $x22
	.loc	2 725 12                // /mnt/disk/jenkins/workspace/release/opensource/component_code/vendor/huawei/extra/build/build_script/kirin_kernel_release/kernel/block/hisi-blk-busy-idle-notify.c:725:12
	adrp	x2, .L.str.25
	.loc	2 725 26 is_stmt 0      // /mnt/disk/jenkins/workspace/release/opensource/component_code/vendor/huawei/extra/build/build_script/kirin_kernel_release/kernel/block/hisi-blk-busy-idle-notify.c:725:26
	add	x0, x19, x22
	.loc	2 725 55                // /mnt/disk/jenkins/workspace/release/opensource/component_code/vendor/huawei/extra/build/build_script/kirin_kernel_release/kernel/block/hisi-blk-busy-idle-notify.c:725:55
	sub	x1, x21, x22
	.loc	2 725 12                // /mnt/disk/jenkins/workspace/release/opensource/component_code/vendor/huawei/extra/build/build_script/kirin_kernel_release/kernel/block/hisi-blk-busy-idle-notify.c:725:12
	add	x2, x2, :lo12:.L.str.25
	bl	snprintf
	.loc	2 729 42 is_stmt 1      // /mnt/disk/jenkins/workspace/release/opensource/component_code/vendor/huawei/extra/build/build_script/kirin_kernel_release/kernel/block/hisi-blk-busy-idle-notify.c:729:42
	ldr	x3, [x20, #400]
	.loc	2 725 9                 // /mnt/disk/jenkins/workspace/release/opensource/component_code/vendor/huawei/extra/build/build_script/kirin_kernel_release/kernel/block/hisi-blk-busy-idle-notify.c:725:9
	add	x20, x22, w0, sxtw
.Ltmp446:
	//DEBUG_VALUE: hisi_queue_busy_idle_statistic_show:offset <- $x20
	.loc	2 728 12                // /mnt/disk/jenkins/workspace/release/opensource/component_code/vendor/huawei/extra/build/build_script/kirin_kernel_release/kernel/block/hisi-blk-busy-idle-notify.c:728:12
	adrp	x2, .L.str.26
	.loc	2 728 26 is_stmt 0      // /mnt/disk/jenkins/workspace/release/opensource/component_code/vendor/huawei/extra/build/build_script/kirin_kernel_release/kernel/block/hisi-blk-busy-idle-notify.c:728:26
	add	x0, x19, x20
	.loc	2 728 55                // /mnt/disk/jenkins/workspace/release/opensource/component_code/vendor/huawei/extra/build/build_script/kirin_kernel_release/kernel/block/hisi-blk-busy-idle-notify.c:728:55
	sub	x1, x21, x20
	.loc	2 728 12                // /mnt/disk/jenkins/workspace/release/opensource/component_code/vendor/huawei/extra/build/build_script/kirin_kernel_release/kernel/block/hisi-blk-busy-idle-notify.c:728:12
	add	x2, x2, :lo12:.L.str.26
	bl	snprintf
	.loc	2 728 9                 // /mnt/disk/jenkins/workspace/release/opensource/component_code/vendor/huawei/extra/build/build_script/kirin_kernel_release/kernel/block/hisi-blk-busy-idle-notify.c:728:9
	add	x0, x20, w0, sxtw
.Ltmp447:
	//DEBUG_VALUE: hisi_queue_busy_idle_statistic_show:offset <- $x0
	.loc	2 730 2 is_stmt 1       // /mnt/disk/jenkins/workspace/release/opensource/component_code/vendor/huawei/extra/build/build_script/kirin_kernel_release/kernel/block/hisi-blk-busy-idle-notify.c:730:2
	ldp	x29, x30, [sp, #32]     // 16-byte Folded Reload
	ldp	x20, x19, [sp, #16]     // 16-byte Folded Reload
.Ltmp448:
	ldp	x22, x21, [sp], #48     // 16-byte Folded Reload
	ret
.Ltmp449:
.Lfunc_end22:
	.size	hisi_queue_busy_idle_statistic_show, .Lfunc_end22-hisi_queue_busy_idle_statistic_show
	.cfi_endproc
                                        // -- End function
	.section	.text.hisi_queue_hw_idle_enable_show,"ax",@progbits
	.hidden	hisi_queue_hw_idle_enable_show // -- Begin function hisi_queue_hw_idle_enable_show
	.globl	hisi_queue_hw_idle_enable_show
	.p2align	2
	.type	hisi_queue_hw_idle_enable_show,@function
hisi_queue_hw_idle_enable_show:         // @hisi_queue_hw_idle_enable_show
.Lfunc_begin23:
	.loc	2 734 0                 // /mnt/disk/jenkins/workspace/release/opensource/component_code/vendor/huawei/extra/build/build_script/kirin_kernel_release/kernel/block/hisi-blk-busy-idle-notify.c:734:0
	.cfi_startproc
// %bb.0:
	str	x19, [sp, #-32]!        // 8-byte Folded Spill
	stp	x29, x30, [sp, #16]     // 16-byte Folded Spill
	add	x29, sp, #16            // =16
	.cfi_def_cfa w29, 16
	.cfi_offset w30, -8
	.cfi_offset w29, -16
	.cfi_offset w19, -32
	//DEBUG_VALUE: hisi_queue_hw_idle_enable_show:q <- $x0
	//DEBUG_VALUE: hisi_queue_hw_idle_enable_show:page <- $x1
	mov	x19, x1
.Ltmp450:
	//DEBUG_VALUE: hisi_queue_hw_idle_enable_show:page <- $x19
	//DEBUG_VALUE: hisi_queue_hw_idle_enable_show:q <- $x0
	//DEBUG_VALUE: hisi_queue_hw_idle_enable_show:q <- $x0
	.loc	2 735 28 prologue_end   // /mnt/disk/jenkins/workspace/release/opensource/component_code/vendor/huawei/extra/build/build_script/kirin_kernel_release/kernel/block/hisi-blk-busy-idle-notify.c:735:28
	bl	hisi_blk_get_lld
.Ltmp451:
	//DEBUG_VALUE: hisi_queue_hw_idle_enable_show:lld <- $x0
	.loc	2 738 17                // /mnt/disk/jenkins/workspace/release/opensource/component_code/vendor/huawei/extra/build/build_script/kirin_kernel_release/kernel/block/hisi-blk-busy-idle-notify.c:738:17
	ldrb	w8, [x0, #80]
	.loc	2 738 3 is_stmt 0       // /mnt/disk/jenkins/workspace/release/opensource/component_code/vendor/huawei/extra/build/build_script/kirin_kernel_release/kernel/block/hisi-blk-busy-idle-notify.c:738:3
	adrp	x9, .L.str.28
	adrp	x10, .L.str.29
	add	x9, x9, :lo12:.L.str.28
	add	x10, x10, :lo12:.L.str.29
	cmp	w8, #0                  // =0
	.loc	2 737 9 is_stmt 1       // /mnt/disk/jenkins/workspace/release/opensource/component_code/vendor/huawei/extra/build/build_script/kirin_kernel_release/kernel/block/hisi-blk-busy-idle-notify.c:737:9
	adrp	x2, .L.str.27
	.loc	2 738 3                 // /mnt/disk/jenkins/workspace/release/opensource/component_code/vendor/huawei/extra/build/build_script/kirin_kernel_release/kernel/block/hisi-blk-busy-idle-notify.c:738:3
	csel	x3, x10, x9, eq
	.loc	2 737 9                 // /mnt/disk/jenkins/workspace/release/opensource/component_code/vendor/huawei/extra/build/build_script/kirin_kernel_release/kernel/block/hisi-blk-busy-idle-notify.c:737:9
	add	x2, x2, :lo12:.L.str.27
	orr	w1, wzr, #0x1000
	mov	x0, x19
.Ltmp452:
	//DEBUG_VALUE: hisi_queue_hw_idle_enable_show:page <- $x0
	bl	snprintf
.Ltmp453:
	.loc	2 737 2 is_stmt 0       // /mnt/disk/jenkins/workspace/release/opensource/component_code/vendor/huawei/extra/build/build_script/kirin_kernel_release/kernel/block/hisi-blk-busy-idle-notify.c:737:2
	ldp	x29, x30, [sp, #16]     // 16-byte Folded Reload
                                        // kill: def $w0 killed $w0 def $x0
	.loc	2 737 9                 // /mnt/disk/jenkins/workspace/release/opensource/component_code/vendor/huawei/extra/build/build_script/kirin_kernel_release/kernel/block/hisi-blk-busy-idle-notify.c:737:9
	sxtw	x0, w0
	.loc	2 737 2                 // /mnt/disk/jenkins/workspace/release/opensource/component_code/vendor/huawei/extra/build/build_script/kirin_kernel_release/kernel/block/hisi-blk-busy-idle-notify.c:737:2
	ldr	x19, [sp], #32          // 8-byte Folded Reload
	ret
.Ltmp454:
.Lfunc_end23:
	.size	hisi_queue_hw_idle_enable_show, .Lfunc_end23-hisi_queue_hw_idle_enable_show
	.cfi_endproc
                                        // -- End function
	.section	.text.hisi_queue_idle_state_show,"ax",@progbits
	.hidden	hisi_queue_idle_state_show // -- Begin function hisi_queue_idle_state_show
	.globl	hisi_queue_idle_state_show
	.p2align	2
	.type	hisi_queue_idle_state_show,@function
hisi_queue_idle_state_show:             // @hisi_queue_idle_state_show
.Lfunc_begin24:
	.loc	2 744 0 is_stmt 1       // /mnt/disk/jenkins/workspace/release/opensource/component_code/vendor/huawei/extra/build/build_script/kirin_kernel_release/kernel/block/hisi-blk-busy-idle-notify.c:744:0
	.cfi_startproc
// %bb.0:
	str	x21, [sp, #-48]!        // 8-byte Folded Spill
	stp	x20, x19, [sp, #16]     // 16-byte Folded Spill
	stp	x29, x30, [sp, #32]     // 16-byte Folded Spill
	add	x29, sp, #32            // =32
	.cfi_def_cfa w29, 16
	.cfi_offset w30, -8
	.cfi_offset w29, -16
	.cfi_offset w19, -24
	.cfi_offset w20, -32
	.cfi_offset w21, -48
	//DEBUG_VALUE: hisi_queue_idle_state_show:q <- $x0
	//DEBUG_VALUE: hisi_queue_idle_state_show:page <- $x1
	mov	x19, x1
.Ltmp455:
	//DEBUG_VALUE: hisi_queue_idle_state_show:page <- $x19
	//DEBUG_VALUE: hisi_queue_idle_state_show:q <- $x0
	//DEBUG_VALUE: hisi_queue_idle_state_show:q <- $x0
	.loc	2 745 28 prologue_end   // /mnt/disk/jenkins/workspace/release/opensource/component_code/vendor/huawei/extra/build/build_script/kirin_kernel_release/kernel/block/hisi-blk-busy-idle-notify.c:745:28
	bl	hisi_blk_get_lld
.Ltmp456:
	.loc	2 750 13                // /mnt/disk/jenkins/workspace/release/opensource/component_code/vendor/huawei/extra/build/build_script/kirin_kernel_release/kernel/block/hisi-blk-busy-idle-notify.c:750:13
	ldr	w8, [x0, #360]
	.loc	2 750 3 is_stmt 0       // /mnt/disk/jenkins/workspace/release/opensource/component_code/vendor/huawei/extra/build/build_script/kirin_kernel_release/kernel/block/hisi-blk-busy-idle-notify.c:750:3
	adrp	x9, .L.str.32
	adrp	x10, .L.str.31
	add	x9, x9, :lo12:.L.str.32
	add	x10, x10, :lo12:.L.str.31
	cmp	w8, #1                  // =1
	.loc	2 749 7 is_stmt 1       // /mnt/disk/jenkins/workspace/release/opensource/component_code/vendor/huawei/extra/build/build_script/kirin_kernel_release/kernel/block/hisi-blk-busy-idle-notify.c:749:7
	adrp	x2, .L.str.30
	.loc	2 745 28                // /mnt/disk/jenkins/workspace/release/opensource/component_code/vendor/huawei/extra/build/build_script/kirin_kernel_release/kernel/block/hisi-blk-busy-idle-notify.c:745:28
	mov	x20, x0
.Ltmp457:
	//DEBUG_VALUE: hisi_queue_idle_state_show:n <- 0
	//DEBUG_VALUE: hisi_queue_idle_state_show:blk_idle <- [DW_OP_plus_uconst 80, DW_OP_stack_value] $x20
	//DEBUG_VALUE: hisi_queue_idle_state_show:lld <- $x20
	.loc	2 750 3                 // /mnt/disk/jenkins/workspace/release/opensource/component_code/vendor/huawei/extra/build/build_script/kirin_kernel_release/kernel/block/hisi-blk-busy-idle-notify.c:750:3
	csel	x3, x10, x9, eq
	.loc	2 749 7                 // /mnt/disk/jenkins/workspace/release/opensource/component_code/vendor/huawei/extra/build/build_script/kirin_kernel_release/kernel/block/hisi-blk-busy-idle-notify.c:749:7
	add	x2, x2, :lo12:.L.str.30
	orr	w1, wzr, #0x1000
	mov	x0, x19
	orr	w21, wzr, #0x1000
	bl	snprintf
.Ltmp458:
	.loc	137 186 2               // /mnt/disk/jenkins/workspace/release/opensource/component_code/vendor/huawei/extra/build/build_script/kirin_kernel_release/kernel/include/linux/compiler.h:186:2
	ldr	w3, [x20, #288]
.Ltmp459:
                                        // kill: def $w0 killed $w0 def $x0
	//DEBUG_VALUE: __read_once_size:p <- [DW_OP_plus_uconst 288, DW_OP_stack_value] $x20
	.loc	2 749 7                 // /mnt/disk/jenkins/workspace/release/opensource/component_code/vendor/huawei/extra/build/build_script/kirin_kernel_release/kernel/block/hisi-blk-busy-idle-notify.c:749:7
	sxtw	x20, w0
.Ltmp460:
	//DEBUG_VALUE: hisi_queue_idle_state_show:n <- $x20
	.loc	2 751 7                 // /mnt/disk/jenkins/workspace/release/opensource/component_code/vendor/huawei/extra/build/build_script/kirin_kernel_release/kernel/block/hisi-blk-busy-idle-notify.c:751:7
	adrp	x2, .L.str.33
	.loc	2 751 21 is_stmt 0      // /mnt/disk/jenkins/workspace/release/opensource/component_code/vendor/huawei/extra/build/build_script/kirin_kernel_release/kernel/block/hisi-blk-busy-idle-notify.c:751:21
	add	x0, x19, x20
	.loc	2 751 45                // /mnt/disk/jenkins/workspace/release/opensource/component_code/vendor/huawei/extra/build/build_script/kirin_kernel_release/kernel/block/hisi-blk-busy-idle-notify.c:751:45
	sub	x1, x21, x20
.Ltmp461:
	//DEBUG_VALUE: __read_once_size:size <- 4
	//DEBUG_VALUE: __read_once_size:res <- undef
	.loc	2 751 7                 // /mnt/disk/jenkins/workspace/release/opensource/component_code/vendor/huawei/extra/build/build_script/kirin_kernel_release/kernel/block/hisi-blk-busy-idle-notify.c:751:7
	add	x2, x2, :lo12:.L.str.33
	bl	snprintf
	.loc	2 751 4                 // /mnt/disk/jenkins/workspace/release/opensource/component_code/vendor/huawei/extra/build/build_script/kirin_kernel_release/kernel/block/hisi-blk-busy-idle-notify.c:751:4
	add	x0, x20, w0, sxtw
.Ltmp462:
	//DEBUG_VALUE: hisi_queue_idle_state_show:n <- $x0
	.loc	2 753 2 is_stmt 1       // /mnt/disk/jenkins/workspace/release/opensource/component_code/vendor/huawei/extra/build/build_script/kirin_kernel_release/kernel/block/hisi-blk-busy-idle-notify.c:753:2
	ldp	x29, x30, [sp, #32]     // 16-byte Folded Reload
	ldp	x20, x19, [sp, #16]     // 16-byte Folded Reload
.Ltmp463:
	ldr	x21, [sp], #48          // 8-byte Folded Reload
	ret
.Ltmp464:
.Lfunc_end24:
	.size	hisi_queue_idle_state_show, .Lfunc_end24-hisi_queue_idle_state_show
	.cfi_endproc
                                        // -- End function
	.type	.L.str,@object          // @.str
	.section	.rodata.str1.1,"aMS",@progbits,1
.L.str:
	.asciz	"\0013[BLK-IO]<%s> %s notify block process time is more than %d ms \r\n"
	.size	.L.str, 66

	.type	.L__func__.hisi_blk_busy_idle_handler_latency_check_timer_expire,@object // @__func__.hisi_blk_busy_idle_handler_latency_check_timer_expire
.L__func__.hisi_blk_busy_idle_handler_latency_check_timer_expire:
	.asciz	"hisi_blk_busy_idle_handler_latency_check_timer_expire"
	.size	.L__func__.hisi_blk_busy_idle_handler_latency_check_timer_expire, 54

	.type	.L.str.1,@object        // @.str.1
.L.str.1:
	.asciz	"\0013[BLK-IO]<%s> %s notify block illegal!\n"
	.size	.L.str.1, 41

	.type	.L__func__.hisi_blk_busy_idle_notify_handler,@object // @__func__.hisi_blk_busy_idle_notify_handler
.L__func__.hisi_blk_busy_idle_notify_handler:
	.asciz	"hisi_blk_busy_idle_notify_handler"
	.size	.L__func__.hisi_blk_busy_idle_notify_handler, 34

	.type	.L.str.2,@object        // @.str.2
.L.str.2:
	.asciz	"\0013[BLK-IO]<%s> %s blk_busy_idle_notifier_callback more than 10ms, actual %lld ms \r\n"
	.size	.L.str.2, 84

	.type	.L.str.3,@object        // @.str.3
.L.str.3:
	.asciz	"\0013[BLK-IO]<%s> %s blk_busy_idle_notifier_callback meets error!\n"
	.size	.L.str.3, 64

	.type	blk_idle_notify_workqueue,@object // @blk_idle_notify_workqueue
	.section	.bss.blk_idle_notify_workqueue,"aw",@nobits
	.p2align	3
blk_idle_notify_workqueue:
	.xword	0
	.size	blk_idle_notify_workqueue, 8

	.type	.L.str.4,@object        // @.str.4
	.section	.rodata.str1.1,"aMS",@progbits,1
.L.str.4:
	.asciz	"busy_idle_notify"
	.size	.L.str.4, 17

	.type	hisi_blk_busy_idle_state_init.__key,@object // @hisi_blk_busy_idle_state_init.__key
	.section	.bss.hisi_blk_busy_idle_state_init.__key,"aw",@nobits
hisi_blk_busy_idle_state_init.__key:
	.size	hisi_blk_busy_idle_state_init.__key, 0

	.type	.L.str.5,@object        // @.str.5
	.section	.rodata.str1.1,"aMS",@progbits,1
.L.str.5:
	.asciz	"&blk_idle->io_count_mutex"
	.size	.L.str.5, 26

	.type	hisi_blk_busy_idle_state_init.__key.6,@object // @hisi_blk_busy_idle_state_init.__key.6
	.section	.bss.hisi_blk_busy_idle_state_init.__key.6,"aw",@nobits
hisi_blk_busy_idle_state_init.__key.6:
	.size	hisi_blk_busy_idle_state_init.__key.6, 0

	.type	.L.str.7,@object        // @.str.7
	.section	.rodata.str1.1,"aMS",@progbits,1
.L.str.7:
	.asciz	"&(&blk_idle->blk_idle_event_subscribers)->rwsem"
	.size	.L.str.7, 48

	.type	hisi_blk_busy_idle_state_init.__key.8,@object // @hisi_blk_busy_idle_state_init.__key.8
	.section	.bss.hisi_blk_busy_idle_state_init.__key.8,"aw",@nobits
hisi_blk_busy_idle_state_init.__key.8:
	.size	hisi_blk_busy_idle_state_init.__key.8, 0

	.type	.L.str.9,@object        // @.str.9
	.section	.rodata.str1.1,"aMS",@progbits,1
.L.str.9:
	.asciz	"&(&blk_idle->counted_list_lock)->rlock"
	.size	.L.str.9, 39

	.type	__kstrtab_blk_busy_idle_event_subscriber,@object // @__kstrtab_blk_busy_idle_event_subscriber
	.section	__ksymtab_strings,"a",@progbits
__kstrtab_blk_busy_idle_event_subscriber:
	.asciz	"blk_busy_idle_event_subscriber"
	.size	__kstrtab_blk_busy_idle_event_subscriber, 31

	.type	__ksymtab_blk_busy_idle_event_subscriber,@object // @__ksymtab_blk_busy_idle_event_subscriber
	.section	"___ksymtab+blk_busy_idle_event_subscriber","a",@progbits
	.p2align	3
__ksymtab_blk_busy_idle_event_subscriber:
	.xword	blk_busy_idle_event_subscriber
	.xword	__kstrtab_blk_busy_idle_event_subscriber
	.size	__ksymtab_blk_busy_idle_event_subscriber, 16

	.type	__kstrtab_blk_queue_busy_idle_event_subscriber,@object // @__kstrtab_blk_queue_busy_idle_event_subscriber
	.section	__ksymtab_strings,"a",@progbits
__kstrtab_blk_queue_busy_idle_event_subscriber:
	.asciz	"blk_queue_busy_idle_event_subscriber"
	.size	__kstrtab_blk_queue_busy_idle_event_subscriber, 37

	.type	__ksymtab_blk_queue_busy_idle_event_subscriber,@object // @__ksymtab_blk_queue_busy_idle_event_subscriber
	.section	"___ksymtab+blk_queue_busy_idle_event_subscriber","a",@progbits
	.p2align	3
__ksymtab_blk_queue_busy_idle_event_subscriber:
	.xword	blk_queue_busy_idle_event_subscriber
	.xword	__kstrtab_blk_queue_busy_idle_event_subscriber
	.size	__ksymtab_blk_queue_busy_idle_event_subscriber, 16

	.type	__kstrtab_blk_lld_busy_idle_event_subscriber,@object // @__kstrtab_blk_lld_busy_idle_event_subscriber
	.section	__ksymtab_strings,"a",@progbits
__kstrtab_blk_lld_busy_idle_event_subscriber:
	.asciz	"blk_lld_busy_idle_event_subscriber"
	.size	__kstrtab_blk_lld_busy_idle_event_subscriber, 35

	.type	__ksymtab_blk_lld_busy_idle_event_subscriber,@object // @__ksymtab_blk_lld_busy_idle_event_subscriber
	.section	"___ksymtab+blk_lld_busy_idle_event_subscriber","a",@progbits
	.p2align	3
__ksymtab_blk_lld_busy_idle_event_subscriber:
	.xword	blk_lld_busy_idle_event_subscriber
	.xword	__kstrtab_blk_lld_busy_idle_event_subscriber
	.size	__ksymtab_blk_lld_busy_idle_event_subscriber, 16

	.type	__kstrtab_blk_busy_idle_event_unsubscriber,@object // @__kstrtab_blk_busy_idle_event_unsubscriber
	.section	__ksymtab_strings,"a",@progbits
__kstrtab_blk_busy_idle_event_unsubscriber:
	.asciz	"blk_busy_idle_event_unsubscriber"
	.size	__kstrtab_blk_busy_idle_event_unsubscriber, 33

	.type	__ksymtab_blk_busy_idle_event_unsubscriber,@object // @__ksymtab_blk_busy_idle_event_unsubscriber
	.section	"___ksymtab+blk_busy_idle_event_unsubscriber","a",@progbits
	.p2align	3
__ksymtab_blk_busy_idle_event_unsubscriber:
	.xword	blk_busy_idle_event_unsubscriber
	.xword	__kstrtab_blk_busy_idle_event_unsubscriber
	.size	__ksymtab_blk_busy_idle_event_unsubscriber, 16

	.type	__kstrtab_blk_queue_busy_idle_event_unsubscriber,@object // @__kstrtab_blk_queue_busy_idle_event_unsubscriber
	.section	__ksymtab_strings,"a",@progbits
__kstrtab_blk_queue_busy_idle_event_unsubscriber:
	.asciz	"blk_queue_busy_idle_event_unsubscriber"
	.size	__kstrtab_blk_queue_busy_idle_event_unsubscriber, 39

	.type	__ksymtab_blk_queue_busy_idle_event_unsubscriber,@object // @__ksymtab_blk_queue_busy_idle_event_unsubscriber
	.section	"___ksymtab+blk_queue_busy_idle_event_unsubscriber","a",@progbits
	.p2align	3
__ksymtab_blk_queue_busy_idle_event_unsubscriber:
	.xword	blk_queue_busy_idle_event_unsubscriber
	.xword	__kstrtab_blk_queue_busy_idle_event_unsubscriber
	.size	__ksymtab_blk_queue_busy_idle_event_unsubscriber, 16

	.type	__kstrtab_blk_queue_busy_idle_enable,@object // @__kstrtab_blk_queue_busy_idle_enable
	.section	__ksymtab_strings,"a",@progbits
__kstrtab_blk_queue_busy_idle_enable:
	.asciz	"blk_queue_busy_idle_enable"
	.size	__kstrtab_blk_queue_busy_idle_enable, 27

	.type	__ksymtab_blk_queue_busy_idle_enable,@object // @__ksymtab_blk_queue_busy_idle_enable
	.section	"___ksymtab+blk_queue_busy_idle_enable","a",@progbits
	.p2align	3
__ksymtab_blk_queue_busy_idle_enable:
	.xword	blk_queue_busy_idle_enable
	.xword	__kstrtab_blk_queue_busy_idle_enable
	.size	__ksymtab_blk_queue_busy_idle_enable, 16

	.type	__kstrtab_blk_mq_tagset_busy_idle_enable,@object // @__kstrtab_blk_mq_tagset_busy_idle_enable
	.section	__ksymtab_strings,"a",@progbits
__kstrtab_blk_mq_tagset_busy_idle_enable:
	.asciz	"blk_mq_tagset_busy_idle_enable"
	.size	__kstrtab_blk_mq_tagset_busy_idle_enable, 31

	.type	__ksymtab_blk_mq_tagset_busy_idle_enable,@object // @__ksymtab_blk_mq_tagset_busy_idle_enable
	.section	"___ksymtab+blk_mq_tagset_busy_idle_enable","a",@progbits
	.p2align	3
__ksymtab_blk_mq_tagset_busy_idle_enable:
	.xword	blk_mq_tagset_busy_idle_enable
	.xword	__kstrtab_blk_mq_tagset_busy_idle_enable
	.size	__ksymtab_blk_mq_tagset_busy_idle_enable, 16

	.type	__kstrtab_blk_mq_tagset_hw_idle_notify_enable,@object // @__kstrtab_blk_mq_tagset_hw_idle_notify_enable
	.section	__ksymtab_strings,"a",@progbits
__kstrtab_blk_mq_tagset_hw_idle_notify_enable:
	.asciz	"blk_mq_tagset_hw_idle_notify_enable"
	.size	__kstrtab_blk_mq_tagset_hw_idle_notify_enable, 36

	.type	__ksymtab_blk_mq_tagset_hw_idle_notify_enable,@object // @__ksymtab_blk_mq_tagset_hw_idle_notify_enable
	.section	"___ksymtab+blk_mq_tagset_hw_idle_notify_enable","a",@progbits
	.p2align	3
__ksymtab_blk_mq_tagset_hw_idle_notify_enable:
	.xword	blk_mq_tagset_hw_idle_notify_enable
	.xword	__kstrtab_blk_mq_tagset_hw_idle_notify_enable
	.size	__ksymtab_blk_mq_tagset_hw_idle_notify_enable, 16

	.type	.L.str.10,@object       // @.str.10
	.section	.rodata.str1.1,"aMS",@progbits,1
.L.str.10:
	.asciz	"\0013[BLK-IO]%s: busy idle enable \r\n"
	.size	.L.str.10, 34

	.type	.L__func__.hisi_queue_busy_idle_enable_store,@object // @__func__.hisi_queue_busy_idle_enable_store
.L__func__.hisi_queue_busy_idle_enable_store:
	.asciz	"hisi_queue_busy_idle_enable_store"
	.size	.L__func__.hisi_queue_busy_idle_enable_store, 34

	.type	.L.str.11,@object       // @.str.11
.L.str.11:
	.asciz	"\0013[BLK-IO]%s: busy idle disable \r\n"
	.size	.L.str.11, 35

	.type	.L.str.12,@object       // @.str.12
.L.str.12:
	.asciz	"\0013[BLK-IO]%s: io busy idle statistic result reset! \r\n"
	.size	.L.str.12, 54

	.type	.L__func__.hisi_queue_busy_idle_statistic_reset_store,@object // @__func__.hisi_queue_busy_idle_statistic_reset_store
