	.text
	.file	"pagecache_manage.c"
	.file	1 "/mnt/disk/jenkins/workspace/release/opensource/component_code/vendor/huawei/extra/build/build_script/kirin_kernel_release/kernel/mm/pagecache_manage.c"
	.file	2 "/mnt/disk/jenkins/workspace/release/opensource/component_code/vendor/huawei/extra/build/build_script/kirin_kernel_release/kernel/include/linux/init.h"
	.file	3 "/mnt/disk/jenkins/workspace/release/opensource/component_code/vendor/huawei/extra/build/build_script/kirin_kernel_release/kernel/include/linux/blkdev.h"
	.file	4 "/mnt/disk/jenkins/workspace/release/opensource/component_code/vendor/huawei/extra/build/build_script/kirin_kernel_release/kernel/include/linux/types.h"
	.file	5 "/mnt/disk/jenkins/workspace/release/opensource/component_code/vendor/huawei/extra/build/build_script/kirin_kernel_release/kernel/include/linux/llist.h"
	.file	6 "/mnt/disk/jenkins/workspace/release/opensource/component_code/vendor/huawei/extra/build/build_script/kirin_kernel_release/kernel/include/linux/smp.h"
	.file	7 "/mnt/disk/jenkins/workspace/release/opensource/component_code/vendor/huawei/extra/build/build_script/kirin_kernel_release/kernel/include/asm-generic/int-ll64.h"
	.file	8 "/mnt/disk/jenkins/workspace/release/opensource/component_code/vendor/huawei/extra/build/build_script/kirin_kernel_release/kernel/include/uapi/asm-generic/int-ll64.h"
	.file	9 "/mnt/disk/jenkins/workspace/release/opensource/component_code/vendor/huawei/extra/build/build_script/kirin_kernel_release/kernel/include/linux/blk_types.h"
	.file	10 "/mnt/disk/jenkins/workspace/release/opensource/component_code/vendor/huawei/extra/build/build_script/kirin_kernel_release/kernel/include/linux/genhd.h"
	.file	11 "/mnt/disk/jenkins/workspace/release/opensource/component_code/vendor/huawei/extra/build/build_script/kirin_kernel_release/kernel/include/linux/seqlock.h"
	.file	12 "/mnt/disk/jenkins/workspace/release/opensource/component_code/vendor/huawei/extra/build/build_script/kirin_kernel_release/kernel/include/linux/device.h"
	.file	13 "/mnt/disk/jenkins/workspace/release/opensource/component_code/vendor/huawei/extra/build/build_script/kirin_kernel_release/kernel/include/linux/kobject.h"
	.file	14 "/mnt/disk/jenkins/workspace/release/opensource/component_code/vendor/huawei/extra/build/build_script/kirin_kernel_release/kernel/arch/arm64/include/asm/spinlock_types.h"
	.file	15 "/mnt/disk/jenkins/workspace/release/opensource/component_code/vendor/huawei/extra/build/build_script/kirin_kernel_release/kernel/include/linux/spinlock_types.h"
	.file	16 "/mnt/disk/jenkins/workspace/release/opensource/component_code/vendor/huawei/extra/build/build_script/kirin_kernel_release/kernel/include/uapi/asm-generic/posix_types.h"
	.file	17 "/mnt/disk/jenkins/workspace/release/opensource/component_code/vendor/huawei/extra/build/build_script/kirin_kernel_release/kernel/include/linux/sysfs.h"
	.file	18 "/mnt/disk/jenkins/workspace/release/opensource/component_code/vendor/huawei/extra/build/build_script/kirin_kernel_release/kernel/include/linux/kobject_ns.h"
	.file	19 "/mnt/disk/jenkins/workspace/release/opensource/component_code/vendor/huawei/extra/build/build_script/kirin_kernel_release/kernel/include/linux/kernfs.h"
	.file	20 "/mnt/disk/jenkins/workspace/release/opensource/component_code/vendor/huawei/extra/build/build_script/kirin_kernel_release/kernel/include/linux/rbtree.h"
	.file	21 "/mnt/disk/jenkins/workspace/release/opensource/component_code/vendor/huawei/extra/build/build_script/kirin_kernel_release/kernel/include/linux/radix-tree.h"
	.file	22 "/mnt/disk/jenkins/workspace/release/opensource/component_code/vendor/huawei/extra/build/build_script/kirin_kernel_release/kernel/include/linux/idr.h"
	.file	23 "/mnt/disk/jenkins/workspace/release/opensource/component_code/vendor/huawei/extra/build/build_script/kirin_kernel_release/kernel/include/linux/seq_file.h"
	.file	24 "/mnt/disk/jenkins/workspace/release/opensource/component_code/vendor/huawei/extra/build/build_script/kirin_kernel_release/kernel/include/asm-generic/atomic-long.h"
	.file	25 "/mnt/disk/jenkins/workspace/release/opensource/component_code/vendor/huawei/extra/build/build_script/kirin_kernel_release/kernel/include/linux/mutex.h"
	.file	26 "/mnt/disk/jenkins/workspace/release/opensource/component_code/vendor/huawei/extra/build/build_script/kirin_kernel_release/kernel/include/linux/osq_lock.h"
	.file	27 "/mnt/disk/jenkins/workspace/release/opensource/component_code/vendor/huawei/extra/build/build_script/kirin_kernel_release/kernel/arch/arm64/include/asm/thread_info.h"
	.file	28 "/mnt/disk/jenkins/workspace/release/opensource/component_code/vendor/huawei/extra/build/build_script/kirin_kernel_release/kernel/include/linux/sched.h"
	.file	29 "/mnt/disk/jenkins/workspace/release/opensource/component_code/vendor/huawei/extra/build/build_script/kirin_kernel_release/kernel/include/linux/timerqueue.h"
	.file	30 "/mnt/disk/jenkins/workspace/release/opensource/component_code/vendor/huawei/extra/build/build_script/kirin_kernel_release/kernel/include/linux/ktime.h"
	.file	31 "/mnt/disk/jenkins/workspace/release/opensource/component_code/vendor/huawei/extra/build/build_script/kirin_kernel_release/kernel/include/linux/hrtimer.h"
	.file	32 "/mnt/disk/jenkins/workspace/release/opensource/component_code/vendor/huawei/extra/build/build_script/kirin_kernel_release/kernel/include/linux/cpumask.h"
	.file	33 "/mnt/disk/jenkins/workspace/release/opensource/component_code/vendor/huawei/extra/build/build_script/kirin_kernel_release/kernel/include/linux/plist.h"
	.file	34 "/mnt/disk/jenkins/workspace/release/opensource/component_code/vendor/huawei/extra/build/build_script/kirin_kernel_release/kernel/include/linux/mm_types.h"
	.file	35 "/mnt/disk/jenkins/workspace/release/opensource/component_code/vendor/huawei/extra/build/build_script/kirin_kernel_release/kernel/arch/arm64/include/asm/pgtable-types.h"
	.file	36 "/mnt/disk/jenkins/workspace/release/opensource/component_code/vendor/huawei/extra/build/build_script/kirin_kernel_release/kernel/include/linux/mm.h"
	.file	37 "/mnt/disk/jenkins/workspace/release/opensource/component_code/vendor/huawei/extra/build/build_script/kirin_kernel_release/kernel/include/asm-generic/pgtable-nop4d-hack.h"
	.file	38 "/mnt/disk/jenkins/workspace/release/opensource/component_code/vendor/huawei/extra/build/build_script/kirin_kernel_release/kernel/include/linux/fs.h"
	.file	39 "/mnt/disk/jenkins/workspace/release/opensource/component_code/vendor/huawei/extra/build/build_script/kirin_kernel_release/kernel/include/linux/uidgid.h"
	.file	40 "/mnt/disk/jenkins/workspace/release/opensource/component_code/vendor/huawei/extra/build/build_script/kirin_kernel_release/kernel/include/linux/dcache.h"
	.file	41 "/mnt/disk/jenkins/workspace/release/opensource/component_code/vendor/huawei/extra/build/build_script/kirin_kernel_release/kernel/include/linux/list_bl.h"
	.file	42 "/mnt/disk/jenkins/workspace/release/opensource/component_code/vendor/huawei/extra/build/build_script/kirin_kernel_release/kernel/include/linux/lockref.h"
	.file	43 "/mnt/disk/jenkins/workspace/release/opensource/component_code/vendor/huawei/extra/build/build_script/kirin_kernel_release/kernel/include/linux/mount.h"
	.file	44 "/mnt/disk/jenkins/workspace/release/opensource/component_code/vendor/huawei/extra/build/build_script/kirin_kernel_release/kernel/include/linux/module.h"
	.file	45 "/mnt/disk/jenkins/workspace/release/opensource/component_code/vendor/huawei/extra/build/build_script/kirin_kernel_release/kernel/include/linux/completion.h"
	.file	46 "/mnt/disk/jenkins/workspace/release/opensource/component_code/vendor/huawei/extra/build/build_script/kirin_kernel_release/kernel/include/linux/wait.h"
	.file	47 "/mnt/disk/jenkins/workspace/release/opensource/component_code/vendor/huawei/extra/build/build_script/kirin_kernel_release/kernel/include/linux/export.h"
	.file	48 "/mnt/disk/jenkins/workspace/release/opensource/component_code/vendor/huawei/extra/build/build_script/kirin_kernel_release/kernel/include/linux/cfi.h"
	.file	49 "/mnt/disk/jenkins/workspace/release/opensource/component_code/vendor/huawei/extra/build/build_script/kirin_kernel_release/kernel/include/linux/moduleparam.h"
	.file	50 "/mnt/disk/jenkins/workspace/release/opensource/component_code/vendor/huawei/extra/build/build_script/kirin_kernel_release/kernel/arch/arm64/include/asm/extable.h"
	.file	51 "/mnt/disk/jenkins/workspace/release/opensource/component_code/vendor/huawei/extra/build/build_script/kirin_kernel_release/kernel/include/linux/rbtree_latch.h"
	.file	52 "/mnt/disk/jenkins/workspace/release/opensource/component_code/vendor/huawei/extra/build/build_script/kirin_kernel_release/kernel/include/uapi/linux/elf.h"
	.file	53 "/mnt/disk/jenkins/workspace/release/opensource/component_code/vendor/huawei/extra/build/build_script/kirin_kernel_release/kernel/arch/arm64/include/asm/module.h"
	.file	54 "/mnt/disk/jenkins/workspace/release/opensource/component_code/vendor/huawei/extra/build/build_script/kirin_kernel_release/kernel/include/uapi/linux/types.h"
	.file	55 "/mnt/disk/jenkins/workspace/release/opensource/component_code/vendor/huawei/extra/build/build_script/kirin_kernel_release/kernel/include/asm-generic/bug.h"
	.file	56 "/mnt/disk/jenkins/workspace/release/opensource/component_code/vendor/huawei/extra/build/build_script/kirin_kernel_release/kernel/include/linux/tracepoint-defs.h"
	.file	57 "/mnt/disk/jenkins/workspace/release/opensource/component_code/vendor/huawei/extra/build/build_script/kirin_kernel_release/kernel/include/linux/jump_label.h"
	.file	58 "/mnt/disk/jenkins/workspace/release/opensource/component_code/vendor/huawei/extra/build/build_script/kirin_kernel_release/kernel/include/linux/lockdep.h"
	.file	59 "/mnt/disk/jenkins/workspace/release/opensource/component_code/vendor/huawei/extra/build/build_script/kirin_kernel_release/kernel/include/linux/writeback.h"
	.file	60 "/mnt/disk/jenkins/workspace/release/opensource/component_code/vendor/huawei/extra/build/build_script/kirin_kernel_release/kernel/include/linux/backing-dev-defs.h"
	.file	61 "/mnt/disk/jenkins/workspace/release/opensource/component_code/vendor/huawei/extra/build/build_script/kirin_kernel_release/kernel/include/linux/refcount.h"
	.file	62 "/mnt/disk/jenkins/workspace/release/opensource/component_code/vendor/huawei/extra/build/build_script/kirin_kernel_release/kernel/include/linux/kref.h"
	.file	63 "/mnt/disk/jenkins/workspace/release/opensource/component_code/vendor/huawei/extra/build/build_script/kirin_kernel_release/kernel/include/linux/rwsem.h"
	.file	64 "/mnt/disk/jenkins/workspace/release/opensource/component_code/vendor/huawei/extra/build/build_script/kirin_kernel_release/kernel/include/linux/timer.h"
	.file	65 "/mnt/disk/jenkins/workspace/release/opensource/component_code/vendor/huawei/extra/build/build_script/kirin_kernel_release/kernel/include/linux/percpu_counter.h"
	.file	66 "/mnt/disk/jenkins/workspace/release/opensource/component_code/vendor/huawei/extra/build/build_script/kirin_kernel_release/kernel/include/linux/flex_proportions.h"
	.file	67 "/mnt/disk/jenkins/workspace/release/opensource/component_code/vendor/huawei/extra/build/build_script/kirin_kernel_release/kernel/include/linux/workqueue.h"
	.file	68 "/mnt/disk/jenkins/workspace/release/opensource/component_code/vendor/huawei/extra/build/build_script/kirin_kernel_release/kernel/include/linux/percpu-refcount.h"
	.file	69 "/mnt/disk/jenkins/workspace/release/opensource/component_code/vendor/huawei/extra/build/build_script/kirin_kernel_release/kernel/include/linux/cgroup-defs.h"
	.file	70 "/mnt/disk/jenkins/workspace/release/opensource/component_code/vendor/huawei/extra/build/build_script/kirin_kernel_release/kernel/include/linux/psi_types.h"
	.file	71 "/mnt/disk/jenkins/workspace/release/opensource/component_code/vendor/huawei/extra/build/build_script/kirin_kernel_release/kernel/include/linux/bpf-cgroup.h"
	.file	72 "/mnt/disk/jenkins/workspace/release/opensource/component_code/vendor/huawei/extra/build/build_script/kirin_kernel_release/kernel/include/linux/path.h"
	.file	73 "/mnt/disk/jenkins/workspace/release/opensource/component_code/vendor/huawei/extra/build/build_script/kirin_kernel_release/kernel/include/linux/nfs_fs_i.h"
	.file	74 "/mnt/disk/jenkins/workspace/release/opensource/component_code/vendor/huawei/extra/build/build_script/kirin_kernel_release/kernel/include/linux/rwlock_types.h"
	.file	75 "/mnt/disk/jenkins/workspace/release/opensource/component_code/vendor/huawei/extra/build/build_script/kirin_kernel_release/kernel/include/linux/pid.h"
	.file	76 "/mnt/disk/jenkins/workspace/release/opensource/component_code/vendor/huawei/extra/build/build_script/kirin_kernel_release/kernel/include/linux/cred.h"
	.file	77 "/mnt/disk/jenkins/workspace/release/opensource/component_code/vendor/huawei/extra/build/build_script/kirin_kernel_release/kernel/include/linux/capability.h"
	.file	78 "/mnt/disk/jenkins/workspace/release/opensource/component_code/vendor/huawei/extra/build/build_script/kirin_kernel_release/kernel/include/linux/key.h"
	.file	79 "/mnt/disk/jenkins/workspace/release/opensource/component_code/vendor/huawei/extra/build/build_script/kirin_kernel_release/kernel/include/linux/assoc_array.h"
	.file	80 "/mnt/disk/jenkins/workspace/release/opensource/component_code/vendor/huawei/extra/build/build_script/kirin_kernel_release/kernel/include/linux/sched/user.h"
	.file	81 "/mnt/disk/jenkins/workspace/release/opensource/component_code/vendor/huawei/extra/build/build_script/kirin_kernel_release/kernel/include/linux/user_namespace.h"
	.file	82 "/mnt/disk/jenkins/workspace/release/opensource/component_code/vendor/huawei/extra/build/build_script/kirin_kernel_release/kernel/include/linux/ns_common.h"
	.file	83 "/mnt/disk/jenkins/workspace/release/opensource/component_code/vendor/huawei/extra/build/build_script/kirin_kernel_release/kernel/include/linux/sysctl.h"
	.file	84 "/mnt/disk/jenkins/workspace/release/opensource/component_code/vendor/huawei/extra/build/build_script/kirin_kernel_release/kernel/include/linux/errseq.h"
	.file	85 "/mnt/disk/jenkins/workspace/release/opensource/component_code/vendor/huawei/extra/build/build_script/kirin_kernel_release/kernel/include/linux/statfs.h"
	.file	86 "/mnt/disk/jenkins/workspace/release/opensource/component_code/vendor/huawei/extra/build/build_script/kirin_kernel_release/kernel/include/linux/quota.h"
	.file	87 "/mnt/disk/jenkins/workspace/release/opensource/component_code/vendor/huawei/extra/build/build_script/kirin_kernel_release/kernel/include/linux/projid.h"
	.file	88 "/mnt/disk/jenkins/workspace/release/opensource/component_code/vendor/huawei/extra/build/build_script/kirin_kernel_release/kernel/include/linux/time64.h"
	.file	89 "/mnt/disk/jenkins/workspace/release/opensource/component_code/vendor/huawei/extra/build/build_script/kirin_kernel_release/kernel/include/linux/shrinker.h"
	.file	90 "/mnt/disk/jenkins/workspace/release/opensource/component_code/vendor/huawei/extra/build/build_script/kirin_kernel_release/kernel/include/linux/memcontrol.h"
	.file	91 "/mnt/disk/jenkins/workspace/release/opensource/component_code/vendor/huawei/extra/build/build_script/kirin_kernel_release/kernel/include/linux/page_counter.h"
	.file	92 "/mnt/disk/jenkins/workspace/release/opensource/component_code/vendor/huawei/extra/build/build_script/kirin_kernel_release/kernel/include/linux/vmpressure.h"
	.file	93 "/mnt/disk/jenkins/workspace/release/opensource/component_code/vendor/huawei/extra/build/build_script/kirin_kernel_release/kernel/include/linux/mmzone.h"
	.file	94 "/mnt/disk/jenkins/workspace/release/opensource/component_code/vendor/huawei/extra/build/build_script/kirin_kernel_release/kernel/include/linux/rcu_sync.h"
	.file	95 "/mnt/disk/jenkins/workspace/release/opensource/component_code/vendor/huawei/extra/build/build_script/kirin_kernel_release/kernel/include/linux/percpu-rwsem.h"
	.file	96 "/mnt/disk/jenkins/workspace/release/opensource/component_code/vendor/huawei/extra/build/build_script/kirin_kernel_release/kernel/include/linux/rcuwait.h"
	.file	97 "/mnt/disk/jenkins/workspace/release/opensource/component_code/vendor/huawei/extra/build/build_script/kirin_kernel_release/kernel/include/linux/uuid.h"
	.file	98 "/mnt/disk/jenkins/workspace/release/opensource/component_code/vendor/huawei/extra/build/build_script/kirin_kernel_release/kernel/include/linux/list_lru.h"
	.file	99 "/mnt/disk/jenkins/workspace/release/opensource/component_code/vendor/huawei/extra/build/build_script/kirin_kernel_release/kernel/include/linux/delayed_call.h"
	.file	100 "/mnt/disk/jenkins/workspace/release/opensource/component_code/vendor/huawei/extra/build/build_script/kirin_kernel_release/kernel/include/uapi/linux/time.h"
	.file	101 "/mnt/disk/jenkins/workspace/release/opensource/component_code/vendor/huawei/extra/build/build_script/kirin_kernel_release/kernel/include/linux/stat.h"
	.file	102 "/mnt/disk/jenkins/workspace/release/opensource/component_code/vendor/huawei/extra/build/build_script/kirin_kernel_release/kernel/include/uapi/linux/fiemap.h"
	.file	103 "/mnt/disk/jenkins/workspace/release/opensource/component_code/vendor/huawei/extra/build/build_script/kirin_kernel_release/kernel/include/linux/migrate_mode.h"
	.file	104 "/mnt/disk/jenkins/workspace/release/opensource/component_code/vendor/huawei/extra/build/build_script/kirin_kernel_release/kernel/include/linux/swap.h"
	.file	105 "/mnt/disk/jenkins/workspace/release/opensource/component_code/vendor/huawei/extra/build/build_script/kirin_kernel_release/kernel/include/linux/memremap.h"
	.file	106 "/mnt/disk/jenkins/workspace/release/opensource/component_code/vendor/huawei/extra/build/build_script/kirin_kernel_release/kernel/include/linux/ioport.h"
	.file	107 "/mnt/disk/jenkins/workspace/release/opensource/component_code/vendor/huawei/extra/build/build_script/kirin_kernel_release/kernel/arch/arm64/include/asm/page.h"
	.file	108 "/mnt/disk/jenkins/workspace/release/opensource/component_code/vendor/huawei/extra/build/build_script/kirin_kernel_release/kernel/include/linux/mm_types_task.h"
	.file	109 "/mnt/disk/jenkins/workspace/release/opensource/component_code/vendor/huawei/extra/build/build_script/kirin_kernel_release/kernel/arch/arm64/include/asm/mmu.h"
	.file	110 "/mnt/disk/jenkins/workspace/release/opensource/component_code/vendor/huawei/extra/build/build_script/kirin_kernel_release/kernel/include/linux/blk-cgroup.h"
	.file	111 "/mnt/disk/jenkins/workspace/release/opensource/component_code/vendor/huawei/extra/build/build_script/kirin_kernel_release/kernel/include/linux/uprobes.h"
	.file	112 "/mnt/disk/jenkins/workspace/release/opensource/component_code/vendor/huawei/extra/build/build_script/kirin_kernel_release/kernel/include/linux/restart_block.h"
	.file	113 "/mnt/disk/jenkins/workspace/release/opensource/component_code/vendor/huawei/extra/build/build_script/kirin_kernel_release/kernel/arch/arm64/include/asm/compat.h"
	.file	114 "/mnt/disk/jenkins/workspace/release/opensource/component_code/vendor/huawei/extra/build/build_script/kirin_kernel_release/kernel/include/linux/nsproxy.h"
	.file	115 "/mnt/disk/jenkins/workspace/release/opensource/component_code/vendor/huawei/extra/build/build_script/kirin_kernel_release/kernel/include/linux/cgroup.h"
	.file	116 "/mnt/disk/jenkins/workspace/release/opensource/component_code/vendor/huawei/extra/build/build_script/kirin_kernel_release/kernel/include/linux/sched/signal.h"
	.file	117 "/mnt/disk/jenkins/workspace/release/opensource/component_code/vendor/huawei/extra/build/build_script/kirin_kernel_release/kernel/include/linux/signal_types.h"
	.file	118 "/mnt/disk/jenkins/workspace/release/opensource/component_code/vendor/huawei/extra/build/build_script/kirin_kernel_release/kernel/include/uapi/asm-generic/signal.h"
	.file	119 "/mnt/disk/jenkins/workspace/release/opensource/component_code/vendor/huawei/extra/build/build_script/kirin_kernel_release/kernel/include/linux/task_io_accounting.h"
	.file	120 "/mnt/disk/jenkins/workspace/release/opensource/component_code/vendor/huawei/extra/build/build_script/kirin_kernel_release/kernel/include/uapi/linux/resource.h"
	.file	121 "/mnt/disk/jenkins/workspace/release/opensource/component_code/vendor/huawei/extra/build/build_script/kirin_kernel_release/kernel/include/uapi/linux/taskstats.h"
	.file	122 "/mnt/disk/jenkins/workspace/release/opensource/component_code/vendor/huawei/extra/build/build_script/kirin_kernel_release/kernel/include/uapi/asm-generic/signal-defs.h"
	.file	123 "/mnt/disk/jenkins/workspace/release/opensource/component_code/vendor/huawei/extra/build/build_script/kirin_kernel_release/kernel/include/linux/seccomp.h"
	.file	124 "/mnt/disk/jenkins/workspace/release/opensource/component_code/vendor/huawei/extra/build/build_script/kirin_kernel_release/kernel/include/linux/bio.h"
	.file	125 "/mnt/disk/jenkins/workspace/release/opensource/component_code/vendor/huawei/extra/build/build_script/kirin_kernel_release/kernel/include/linux/iocontext.h"
	.file	126 "/mnt/disk/jenkins/workspace/release/opensource/component_code/vendor/huawei/extra/build/build_script/kirin_kernel_release/kernel/include/uapi/asm-generic/siginfo.h"
	.file	127 "/mnt/disk/jenkins/workspace/release/opensource/component_code/vendor/huawei/extra/build/build_script/kirin_kernel_release/kernel/include/linux/nodemask.h"
	.file	128 "/mnt/disk/jenkins/workspace/release/opensource/component_code/vendor/huawei/extra/build/build_script/kirin_kernel_release/kernel/arch/arm64/include/asm/processor.h"
	.file	129 "/mnt/disk/jenkins/workspace/release/opensource/component_code/vendor/huawei/extra/build/build_script/kirin_kernel_release/kernel/arch/arm64/include/uapi/asm/ptrace.h"
	.file	130 "/mnt/disk/jenkins/workspace/release/opensource/component_code/vendor/huawei/extra/build/build_script/kirin_kernel_release/kernel/arch/arm64/include/asm/fpsimd.h"
	.file	131 "/mnt/disk/jenkins/workspace/release/opensource/component_code/vendor/huawei/extra/build/build_script/kirin_kernel_release/kernel/include/linux/pm.h"
	.file	132 "/mnt/disk/jenkins/workspace/release/opensource/component_code/vendor/huawei/extra/build/build_script/kirin_kernel_release/kernel/include/linux/pm_wakeup.h"
	.file	133 "/mnt/disk/jenkins/workspace/release/opensource/component_code/vendor/huawei/extra/build/build_script/kirin_kernel_release/kernel/include/linux/pinctrl/devinfo.h"
	.file	134 "/mnt/disk/jenkins/workspace/release/opensource/component_code/vendor/huawei/extra/build/build_script/kirin_kernel_release/kernel/arch/arm64/include/asm/device.h"
	.file	135 "/mnt/disk/jenkins/workspace/release/opensource/component_code/vendor/huawei/extra/build/build_script/kirin_kernel_release/kernel/include/linux/klist.h"
	.file	136 "/mnt/disk/jenkins/workspace/release/opensource/component_code/vendor/huawei/extra/build/build_script/kirin_kernel_release/kernel/include/linux/bvec.h"
	.file	137 "/mnt/disk/jenkins/workspace/release/opensource/component_code/vendor/huawei/extra/build/build_script/kirin_kernel_release/kernel/include/linux/mempool.h"
	.file	138 "/mnt/disk/jenkins/workspace/release/opensource/component_code/vendor/huawei/extra/build/build_script/kirin_kernel_release/kernel/include/linux/elevator.h"
	.file	139 "/mnt/disk/jenkins/workspace/release/opensource/component_code/vendor/huawei/extra/build/build_script/kirin_kernel_release/kernel/include/linux/bsg.h"
	.file	140 "/mnt/disk/jenkins/workspace/release/opensource/component_code/vendor/huawei/extra/build/build_script/kirin_kernel_release/kernel/include/linux/notifier.h"
	.file	141 "/mnt/disk/jenkins/workspace/release/opensource/component_code/vendor/huawei/extra/build/build_script/kirin_kernel_release/kernel/include/linux/semaphore.h"
	.file	142 "/mnt/disk/jenkins/workspace/release/opensource/component_code/vendor/huawei/extra/build/build_script/kirin_kernel_release/kernel/include/linux/bootdevice.h"
	.file	143 "/mnt/disk/jenkins/workspace/release/opensource/component_code/vendor/huawei/extra/build/build_script/kirin_kernel_release/kernel/include/linux/stddef.h"
	.file	144 "/mnt/disk/jenkins/workspace/release/opensource/component_code/vendor/huawei/extra/build/build_script/kirin_kernel_release/kernel/include/linux/page-flags.h"
	.section	.text.pch_lowmem_check,"ax",@progbits
	.hidden	pch_lowmem_check        // -- Begin function pch_lowmem_check
	.globl	pch_lowmem_check
	.p2align	2
	.type	pch_lowmem_check,@function
pch_lowmem_check:                       // @pch_lowmem_check
.Lfunc_begin0:
	.loc	1 261 0                 // /mnt/disk/jenkins/workspace/release/opensource/component_code/vendor/huawei/extra/build/build_script/kirin_kernel_release/kernel/mm/pagecache_manage.c:261:0
	.cfi_sections .debug_frame
	.cfi_startproc
// %bb.0:
	stp	x20, x19, [sp, #-32]!   // 16-byte Folded Spill
	stp	x29, x30, [sp, #16]     // 16-byte Folded Spill
	add	x29, sp, #16            // =16
	.cfi_def_cfa w29, 16
	.cfi_offset w30, -8
	.cfi_offset w29, -16
	.cfi_offset w19, -24
	.cfi_offset w20, -32
.Ltmp0:
	//DEBUG_VALUE: pch_lowmem_check:ret <- 0
	.loc	1 266 10 prologue_end   // /mnt/disk/jenkins/workspace/release/opensource/component_code/vendor/huawei/extra/build/build_script/kirin_kernel_release/kernel/mm/pagecache_manage.c:266:10
	bl	first_online_pgdat
	.loc	1 268 6                 // /mnt/disk/jenkins/workspace/release/opensource/component_code/vendor/huawei/extra/build/build_script/kirin_kernel_release/kernel/mm/pagecache_manage.c:268:6
	cbz	x0, .LBB0_2
// %bb.1:
	.loc	1 271 14                // /mnt/disk/jenkins/workspace/release/opensource/component_code/vendor/huawei/extra/build/build_script/kirin_kernel_release/kernel/mm/pagecache_manage.c:271:14
	ldr	x8, [x0, #16]
.Ltmp1:
	.loc	1 272 7                 // /mnt/disk/jenkins/workspace/release/opensource/component_code/vendor/huawei/extra/build/build_script/kirin_kernel_release/kernel/mm/pagecache_manage.c:272:7
	mov	w1, wzr
	mov	w3, wzr
	mov	w4, wzr
.Ltmp2:
	.loc	1 271 37                // /mnt/disk/jenkins/workspace/release/opensource/component_code/vendor/huawei/extra/build/build_script/kirin_kernel_release/kernel/mm/pagecache_manage.c:271:37
	add	x2, x8, #2              // =2
.Ltmp3:
	//DEBUG_VALUE: pch_lowmem_check:watermark <- $x2
	.loc	1 0 0 is_stmt 0         // /mnt/disk/jenkins/workspace/release/opensource/component_code/vendor/huawei/extra/build/build_script/kirin_kernel_release/kernel/mm/pagecache_manage.c:0:0
	mov	x19, x0
.Ltmp4:
	//DEBUG_VALUE: pch_lowmem_check:zone <- $x19
	.loc	1 272 7 is_stmt 1       // /mnt/disk/jenkins/workspace/release/opensource/component_code/vendor/huawei/extra/build/build_script/kirin_kernel_release/kernel/mm/pagecache_manage.c:272:7
	bl	zone_watermark_ok
.Ltmp5:
	.loc	1 275 14                // /mnt/disk/jenkins/workspace/release/opensource/component_code/vendor/huawei/extra/build/build_script/kirin_kernel_release/kernel/mm/pagecache_manage.c:275:14
	ldr	x2, [x19, #8]
.Ltmp6:
	//DEBUG_VALUE: pch_lowmem_check:watermark <- $x2
	.loc	1 272 6                 // /mnt/disk/jenkins/workspace/release/opensource/component_code/vendor/huawei/extra/build/build_script/kirin_kernel_release/kernel/mm/pagecache_manage.c:272:6
	mvn	w8, w0
.Ltmp7:
	.loc	1 276 7                 // /mnt/disk/jenkins/workspace/release/opensource/component_code/vendor/huawei/extra/build/build_script/kirin_kernel_release/kernel/mm/pagecache_manage.c:276:7
	mov	x0, x19
	mov	w1, wzr
	mov	w3, wzr
	mov	w4, wzr
.Ltmp8:
	.loc	1 272 6                 // /mnt/disk/jenkins/workspace/release/opensource/component_code/vendor/huawei/extra/build/build_script/kirin_kernel_release/kernel/mm/pagecache_manage.c:272:6
	and	w20, w8, #0x1
.Ltmp9:
	//DEBUG_VALUE: pch_lowmem_check:ret <- $w20
	.loc	1 276 7                 // /mnt/disk/jenkins/workspace/release/opensource/component_code/vendor/huawei/extra/build/build_script/kirin_kernel_release/kernel/mm/pagecache_manage.c:276:7
	bl	zone_watermark_ok
.Ltmp10:
	.loc	1 276 6 is_stmt 0       // /mnt/disk/jenkins/workspace/release/opensource/component_code/vendor/huawei/extra/build/build_script/kirin_kernel_release/kernel/mm/pagecache_manage.c:276:6
	tst	w0, #0x1
	orr	w8, wzr, #0x2
	csel	w0, w20, w8, ne
.Ltmp11:
.LBB0_2:
	.loc	1 280 1 is_stmt 1       // /mnt/disk/jenkins/workspace/release/opensource/component_code/vendor/huawei/extra/build/build_script/kirin_kernel_release/kernel/mm/pagecache_manage.c:280:1
	ldp	x29, x30, [sp, #16]     // 16-byte Folded Reload
	ldp	x20, x19, [sp], #32     // 16-byte Folded Reload
	ret
.Ltmp12:
.Lfunc_end0:
	.size	pch_lowmem_check, .Lfunc_end0-pch_lowmem_check
	.cfi_endproc
                                        // -- End function
	.section	.text.pch_lowmem_check2,"ax",@progbits
	.hidden	pch_lowmem_check2       // -- Begin function pch_lowmem_check2
	.globl	pch_lowmem_check2
	.p2align	2
	.type	pch_lowmem_check2,@function
pch_lowmem_check2:                      // @pch_lowmem_check2
.Lfunc_begin1:
	.loc	1 293 0                 // /mnt/disk/jenkins/workspace/release/opensource/component_code/vendor/huawei/extra/build/build_script/kirin_kernel_release/kernel/mm/pagecache_manage.c:293:0
	.cfi_startproc
// %bb.0:
	stp	x20, x19, [sp, #-32]!   // 16-byte Folded Spill
	stp	x29, x30, [sp, #16]     // 16-byte Folded Spill
	add	x29, sp, #16            // =16
	.cfi_def_cfa w29, 16
	.cfi_offset w30, -8
	.cfi_offset w29, -16
	.cfi_offset w19, -24
	.cfi_offset w20, -32
.Ltmp13:
	//DEBUG_VALUE: pch_lowmem_check2:array_size <- 4
	//DEBUG_VALUE: pch_lowmem_check2:minfree <- 0
	//DEBUG_VALUE: global_node_page_state:item <- 15
	//DEBUG_VALUE: __read_once_size:res <- undef
	//DEBUG_VALUE: __read_once_size:size <- 8
	.file	145 "/mnt/disk/jenkins/workspace/release/opensource/component_code/vendor/huawei/extra/build/build_script/kirin_kernel_release/kernel/include/linux/compiler.h"
	.loc	145 186 2 prologue_end  // /mnt/disk/jenkins/workspace/release/opensource/component_code/vendor/huawei/extra/build/build_script/kirin_kernel_release/kernel/include/linux/compiler.h:186:2
	adrp	x8, vm_node_stat+120
	add	x8, x8, :lo12:vm_node_stat+120
.Ltmp14:
	//DEBUG_VALUE: __read_once_size:p <- $x8
	ldr	x9, [x8]
.Ltmp15:
	//DEBUG_VALUE: global_node_page_state:x <- $x9
	.loc	145 186 2 is_stmt 0     // /mnt/disk/jenkins/workspace/release/opensource/component_code/vendor/huawei/extra/build/build_script/kirin_kernel_release/kernel/include/linux/compiler.h:186:2
	ldr	x8, [x8, #32]
.Ltmp16:
	//DEBUG_VALUE: __read_once_size:p <- [DW_OP_plus_uconst 32, DW_OP_stack_value] undef
	//DEBUG_VALUE: global_node_page_state:x <- $x8
	.file	146 "/mnt/disk/jenkins/workspace/release/opensource/component_code/vendor/huawei/extra/build/build_script/kirin_kernel_release/kernel/include/linux/vmstat.h"
	.loc	146 170 6 is_stmt 1     // /mnt/disk/jenkins/workspace/release/opensource/component_code/vendor/huawei/extra/build/build_script/kirin_kernel_release/kernel/include/linux/vmstat.h:170:6
	bic	x19, x9, x9, asr #63
.Ltmp17:
	//DEBUG_VALUE: __read_once_size:size <- 8
	//DEBUG_VALUE: __read_once_size:res <- undef
	//DEBUG_VALUE: global_node_page_state:item <- 19
	//DEBUG_VALUE: global_node_page_state:x <- $x19
	//DEBUG_VALUE: global_node_page_state:x <- $x9
	//DEBUG_VALUE: global_node_page_state:item <- 15
	.loc	146 170 6 is_stmt 0     // /mnt/disk/jenkins/workspace/release/opensource/component_code/vendor/huawei/extra/build/build_script/kirin_kernel_release/kernel/include/linux/vmstat.h:170:6
	bic	x20, x8, x8, asr #63
.Ltmp18:
	//DEBUG_VALUE: global_node_page_state:x <- $x20
	//DEBUG_VALUE: global_node_page_state:x <- $x8
	.loc	1 300 5 is_stmt 1       // /mnt/disk/jenkins/workspace/release/opensource/component_code/vendor/huawei/extra/build/build_script/kirin_kernel_release/kernel/mm/pagecache_manage.c:300:5
	bl	total_swapcache_pages
.Ltmp19:
	.loc	145 186 2               // /mnt/disk/jenkins/workspace/release/opensource/component_code/vendor/huawei/extra/build/build_script/kirin_kernel_release/kernel/include/linux/compiler.h:186:2
	adrp	x9, vm_zone_stat
	add	x9, x9, :lo12:vm_zone_stat
.Ltmp20:
	//DEBUG_VALUE: __read_once_size:p <- $x9
	.loc	1 303 5                 // /mnt/disk/jenkins/workspace/release/opensource/component_code/vendor/huawei/extra/build/build_script/kirin_kernel_release/kernel/mm/pagecache_manage.c:303:5
	adrp	x10, totalreserve_pages
.Ltmp21:
	.loc	145 186 2               // /mnt/disk/jenkins/workspace/release/opensource/component_code/vendor/huawei/extra/build/build_script/kirin_kernel_release/kernel/include/linux/compiler.h:186:2
	ldr	x11, [x9]
.Ltmp22:
	//DEBUG_VALUE: global_zone_page_state:x <- $x11
	//DEBUG_VALUE: __read_once_size:p <- $x9
	.loc	145 186 2 is_stmt 0     // /mnt/disk/jenkins/workspace/release/opensource/component_code/vendor/huawei/extra/build/build_script/kirin_kernel_release/kernel/include/linux/compiler.h:186:2
	ldr	x9, [x9, #96]
.Ltmp23:
	//DEBUG_VALUE: __read_once_size:p <- [DW_OP_plus_uconst 96, DW_OP_stack_value] undef
	//DEBUG_VALUE: global_zone_page_state:x <- $x9
	.loc	1 303 5 is_stmt 1       // /mnt/disk/jenkins/workspace/release/opensource/component_code/vendor/huawei/extra/build/build_script/kirin_kernel_release/kernel/mm/pagecache_manage.c:303:5
	ldr	x10, [x10, :lo12:totalreserve_pages]
	.loc	1 298 67                // /mnt/disk/jenkins/workspace/release/opensource/component_code/vendor/huawei/extra/build/build_script/kirin_kernel_release/kernel/mm/pagecache_manage.c:298:67
	sub	x8, x19, x0
.Ltmp24:
	.loc	146 160 6               // /mnt/disk/jenkins/workspace/release/opensource/component_code/vendor/huawei/extra/build/build_script/kirin_kernel_release/kernel/include/linux/vmstat.h:160:6
	bic	x11, x11, x11, asr #63
.Ltmp25:
	//DEBUG_VALUE: __read_once_size:size <- 8
	//DEBUG_VALUE: __read_once_size:res <- undef
	//DEBUG_VALUE: global_zone_page_state:item <- 12
	//DEBUG_VALUE: global_zone_page_state:x <- $x11
	//DEBUG_VALUE: global_zone_page_state:x <- $x11
	.loc	146 160 6 is_stmt 0     // /mnt/disk/jenkins/workspace/release/opensource/component_code/vendor/huawei/extra/build/build_script/kirin_kernel_release/kernel/include/linux/vmstat.h:160:6
	bic	x9, x9, x9, asr #63
.Ltmp26:
	//DEBUG_VALUE: global_zone_page_state:x <- $x9
	//DEBUG_VALUE: global_zone_page_state:x <- $x9
	.loc	1 301 67 is_stmt 1      // /mnt/disk/jenkins/workspace/release/opensource/component_code/vendor/huawei/extra/build/build_script/kirin_kernel_release/kernel/mm/pagecache_manage.c:301:67
	sub	x10, x11, x10
	.loc	1 302 47                // /mnt/disk/jenkins/workspace/release/opensource/component_code/vendor/huawei/extra/build/build_script/kirin_kernel_release/kernel/mm/pagecache_manage.c:302:47
	sub	x9, x10, x9
.Ltmp27:
	//DEBUG_VALUE: pch_lowmem_check2:i <- 0
	//DEBUG_VALUE: pch_lowmem_check2:other_free <- $x9
	//DEBUG_VALUE: pch_lowmem_check2:minfree <- 1536
	.loc	1 299 38                // /mnt/disk/jenkins/workspace/release/opensource/component_code/vendor/huawei/extra/build/build_script/kirin_kernel_release/kernel/mm/pagecache_manage.c:299:38
	sub	x8, x8, x20
.Ltmp28:
	//DEBUG_VALUE: __read_once_size:size <- 8
	//DEBUG_VALUE: __read_once_size:res <- undef
	//DEBUG_VALUE: global_zone_page_state:item <- 0
	//DEBUG_VALUE: pch_lowmem_check2:other_file <- $x8
	.loc	1 311 18                // /mnt/disk/jenkins/workspace/release/opensource/component_code/vendor/huawei/extra/build/build_script/kirin_kernel_release/kernel/mm/pagecache_manage.c:311:18
	cmp	x9, #1536               // =1536
	.loc	1 311 28 is_stmt 0      // /mnt/disk/jenkins/workspace/release/opensource/component_code/vendor/huawei/extra/build/build_script/kirin_kernel_release/kernel/mm/pagecache_manage.c:311:28
	orr	x9, x9, x8
.Ltmp29:
	.loc	1 311 18                // /mnt/disk/jenkins/workspace/release/opensource/component_code/vendor/huawei/extra/build/build_script/kirin_kernel_release/kernel/mm/pagecache_manage.c:311:18
	cset	w10, lo
	.loc	1 311 42                // /mnt/disk/jenkins/workspace/release/opensource/component_code/vendor/huawei/extra/build/build_script/kirin_kernel_release/kernel/mm/pagecache_manage.c:311:42
	cmp	x8, #1536               // =1536
	cset	w8, lo
.Ltmp30:
	.loc	1 311 28                // /mnt/disk/jenkins/workspace/release/opensource/component_code/vendor/huawei/extra/build/build_script/kirin_kernel_release/kernel/mm/pagecache_manage.c:311:28
	cmp	x9, #2048               // =2048
	and	w8, w10, w8
.Ltmp31:
	//DEBUG_VALUE: pch_lowmem_check2:i <- 1
	cset	w10, lo
	cmp	x9, #1, lsl #12         // =4096
.Ltmp32:
	.loc	1 316 1 is_stmt 1       // /mnt/disk/jenkins/workspace/release/opensource/component_code/vendor/huawei/extra/build/build_script/kirin_kernel_release/kernel/mm/pagecache_manage.c:316:1
	ldp	x29, x30, [sp, #16]     // 16-byte Folded Reload
.Ltmp33:
	.loc	1 311 28                // /mnt/disk/jenkins/workspace/release/opensource/component_code/vendor/huawei/extra/build/build_script/kirin_kernel_release/kernel/mm/pagecache_manage.c:311:28
	orr	w8, w8, w10
.Ltmp34:
	//DEBUG_VALUE: pch_lowmem_check2:i <- 2
	//DEBUG_VALUE: pch_lowmem_check2:minfree <- 2048
	cset	w10, lo
	cmp	x9, #4, lsl #12         // =16384
	orr	w8, w8, w10
.Ltmp35:
	//DEBUG_VALUE: pch_lowmem_check2:i <- 3
	//DEBUG_VALUE: pch_lowmem_check2:minfree <- 4096
	cset	w9, lo
	orr	w0, w8, w9
.Ltmp36:
	//DEBUG_VALUE: pch_lowmem_check2:i <- 4
	//DEBUG_VALUE: pch_lowmem_check2:minfree <- 16384
	.loc	1 316 1                 // /mnt/disk/jenkins/workspace/release/opensource/component_code/vendor/huawei/extra/build/build_script/kirin_kernel_release/kernel/mm/pagecache_manage.c:316:1
	ldp	x20, x19, [sp], #32     // 16-byte Folded Reload
	ret
.Ltmp37:
.Lfunc_end1:
	.size	pch_lowmem_check2, .Lfunc_end1-pch_lowmem_check2
	.cfi_endproc
                                        // -- End function
	.section	.text.pch_get_page,"ax",@progbits
	.hidden	pch_get_page            // -- Begin function pch_get_page
	.globl	pch_get_page
	.p2align	2
	.type	pch_get_page,@function
pch_get_page:                           // @pch_get_page
.Lfunc_begin2:
	.loc	1 346 0                 // /mnt/disk/jenkins/workspace/release/opensource/component_code/vendor/huawei/extra/build/build_script/kirin_kernel_release/kernel/mm/pagecache_manage.c:346:0
	.cfi_startproc
// %bb.0:
	stp	x29, x30, [sp, #-16]!   // 16-byte Folded Spill
	mov	x29, sp
	.cfi_def_cfa w29, 16
	.cfi_offset w30, -8
	.cfi_offset w29, -16
	//DEBUG_VALUE: pch_get_page:mapping <- $x0
	//DEBUG_VALUE: pch_get_page:mapping <- $x0
	//DEBUG_VALUE: pch_get_page:offset <- $x1
	//DEBUG_VALUE: pch_get_page:offset <- $x1
	//DEBUG_VALUE: pch_get_page:fgp_flags <- $w2
	//DEBUG_VALUE: pch_get_page:fgp_flags <- $w2
	//DEBUG_VALUE: pch_get_page:gfp_mask <- $w3
	//DEBUG_VALUE: pch_get_page:gfp_mask <- $w3
	//DEBUG_VALUE: pch_get_page:gfp_mask <- $w3
	//DEBUG_VALUE: pch_get_page:fgp_flags <- $w2
	//DEBUG_VALUE: pch_get_page:offset <- $x1
	//DEBUG_VALUE: pch_get_page:mapping <- $x0
.Ltmp38:
	.loc	1 374 9 prologue_end    // /mnt/disk/jenkins/workspace/release/opensource/component_code/vendor/huawei/extra/build/build_script/kirin_kernel_release/kernel/mm/pagecache_manage.c:374:9
	bl	pagecache_get_page
.Ltmp39:
	.loc	1 374 2 is_stmt 0       // /mnt/disk/jenkins/workspace/release/opensource/component_code/vendor/huawei/extra/build/build_script/kirin_kernel_release/kernel/mm/pagecache_manage.c:374:2
	ldp	x29, x30, [sp], #16     // 16-byte Folded Reload
	ret
.Ltmp40:
.Lfunc_end2:
	.size	pch_get_page, .Lfunc_end2-pch_get_page
	.cfi_endproc
                                        // -- End function
	.section	.text.pch_shrink_read_pages,"ax",@progbits
	.hidden	pch_shrink_read_pages   // -- Begin function pch_shrink_read_pages
	.globl	pch_shrink_read_pages
	.p2align	2
	.type	pch_shrink_read_pages,@function
pch_shrink_read_pages:                  // @pch_shrink_read_pages
.Lfunc_begin3:
	.loc	1 387 0 is_stmt 1       // /mnt/disk/jenkins/workspace/release/opensource/component_code/vendor/huawei/extra/build/build_script/kirin_kernel_release/kernel/mm/pagecache_manage.c:387:0
	.cfi_startproc
// %bb.0:
	stp	x22, x21, [sp, #-48]!   // 16-byte Folded Spill
	stp	x20, x19, [sp, #16]     // 16-byte Folded Spill
	stp	x29, x30, [sp, #32]     // 16-byte Folded Spill
	add	x29, sp, #32            // =32
	.cfi_def_cfa w29, 16
	.cfi_offset w30, -8
	.cfi_offset w29, -16
	.cfi_offset w19, -24
	.cfi_offset w20, -32
	.cfi_offset w21, -40
	.cfi_offset w22, -48
	//DEBUG_VALUE: pch_shrink_read_pages:nr <- $x0
.Ltmp41:
	.loc	1 390 7 prologue_end    // /mnt/disk/jenkins/workspace/release/opensource/component_code/vendor/huawei/extra/build/build_script/kirin_kernel_release/kernel/mm/pagecache_manage.c:390:7
	adrp	x22, pch_info
	ldr	x8, [x22, :lo12:pch_info]
	mov	x19, x0
.Ltmp42:
	//DEBUG_VALUE: pch_shrink_read_pages:nr <- $x19
	.loc	1 390 17 is_stmt 0      // /mnt/disk/jenkins/workspace/release/opensource/component_code/vendor/huawei/extra/build/build_script/kirin_kernel_release/kernel/mm/pagecache_manage.c:390:17
	ldr	w9, [x8, #200]
.Ltmp43:
	.loc	1 390 6                 // /mnt/disk/jenkins/workspace/release/opensource/component_code/vendor/huawei/extra/build/build_script/kirin_kernel_release/kernel/mm/pagecache_manage.c:390:6
	cbz	w9, .LBB3_7
.Ltmp44:
// %bb.1:
	//DEBUG_VALUE: pch_shrink_read_pages:nr <- $x19
	.loc	1 393 16 is_stmt 1      // /mnt/disk/jenkins/workspace/release/opensource/component_code/vendor/huawei/extra/build/build_script/kirin_kernel_release/kernel/mm/pagecache_manage.c:393:16
	ldr	w9, [x8, #212]
.Ltmp45:
	.loc	1 393 6 is_stmt 0       // /mnt/disk/jenkins/workspace/release/opensource/component_code/vendor/huawei/extra/build/build_script/kirin_kernel_release/kernel/mm/pagecache_manage.c:393:6
	cmp	x9, x19
	b.hs	.LBB3_3
.Ltmp46:
// %bb.2:
	//DEBUG_VALUE: pch_shrink_read_pages:nr <- $x19
	.loc	1 394 24 is_stmt 1      // /mnt/disk/jenkins/workspace/release/opensource/component_code/vendor/huawei/extra/build/build_script/kirin_kernel_release/kernel/mm/pagecache_manage.c:394:24
	ldr	w19, [x8, #208]
.Ltmp47:
	//DEBUG_VALUE: pch_shrink_read_pages:ra_pages <- $x19
.LBB3_3:
	//DEBUG_VALUE: pch_shrink_read_pages:ra_pages <- $x19
	//DEBUG_VALUE: pch_lowmem_check:ret <- 0
	.loc	1 266 10                // /mnt/disk/jenkins/workspace/release/opensource/component_code/vendor/huawei/extra/build/build_script/kirin_kernel_release/kernel/mm/pagecache_manage.c:266:10
	bl	first_online_pgdat
	.loc	1 268 6                 // /mnt/disk/jenkins/workspace/release/opensource/component_code/vendor/huawei/extra/build/build_script/kirin_kernel_release/kernel/mm/pagecache_manage.c:268:6
	cbz	x0, .LBB3_7
.Ltmp48:
// %bb.4:
	//DEBUG_VALUE: pch_shrink_read_pages:ra_pages <- $x19
	.loc	1 271 14                // /mnt/disk/jenkins/workspace/release/opensource/component_code/vendor/huawei/extra/build/build_script/kirin_kernel_release/kernel/mm/pagecache_manage.c:271:14
	ldr	x8, [x0, #16]
.Ltmp49:
	.loc	1 272 7                 // /mnt/disk/jenkins/workspace/release/opensource/component_code/vendor/huawei/extra/build/build_script/kirin_kernel_release/kernel/mm/pagecache_manage.c:272:7
	mov	w1, wzr
	mov	w3, wzr
	mov	w4, wzr
.Ltmp50:
	.loc	1 271 37                // /mnt/disk/jenkins/workspace/release/opensource/component_code/vendor/huawei/extra/build/build_script/kirin_kernel_release/kernel/mm/pagecache_manage.c:271:37
	add	x2, x8, #2              // =2
.Ltmp51:
	//DEBUG_VALUE: pch_lowmem_check:watermark <- $x2
	.loc	1 0 0 is_stmt 0         // /mnt/disk/jenkins/workspace/release/opensource/component_code/vendor/huawei/extra/build/build_script/kirin_kernel_release/kernel/mm/pagecache_manage.c:0:0
	mov	x20, x0
.Ltmp52:
	//DEBUG_VALUE: pch_lowmem_check:zone <- $x20
	.loc	1 272 7 is_stmt 1       // /mnt/disk/jenkins/workspace/release/opensource/component_code/vendor/huawei/extra/build/build_script/kirin_kernel_release/kernel/mm/pagecache_manage.c:272:7
	bl	zone_watermark_ok
.Ltmp53:
	.loc	1 275 14                // /mnt/disk/jenkins/workspace/release/opensource/component_code/vendor/huawei/extra/build/build_script/kirin_kernel_release/kernel/mm/pagecache_manage.c:275:14
	ldr	x2, [x20, #8]
.Ltmp54:
	//DEBUG_VALUE: pch_lowmem_check:watermark <- $x2
	.loc	1 272 7                 // /mnt/disk/jenkins/workspace/release/opensource/component_code/vendor/huawei/extra/build/build_script/kirin_kernel_release/kernel/mm/pagecache_manage.c:272:7
	mov	w21, w0
.Ltmp55:
	.loc	1 276 7                 // /mnt/disk/jenkins/workspace/release/opensource/component_code/vendor/huawei/extra/build/build_script/kirin_kernel_release/kernel/mm/pagecache_manage.c:276:7
	mov	x0, x20
	mov	w1, wzr
	mov	w3, wzr
	mov	w4, wzr
	bl	zone_watermark_ok
.Ltmp56:
	.loc	1 0 7 is_stmt 0         // /mnt/disk/jenkins/workspace/release/opensource/component_code/vendor/huawei/extra/build/build_script/kirin_kernel_release/kernel/mm/pagecache_manage.c:0:7
	tbz	w21, #0, .LBB3_6
.Ltmp57:
// %bb.5:
	//DEBUG_VALUE: pch_lowmem_check:zone <- $x20
	//DEBUG_VALUE: pch_shrink_read_pages:ra_pages <- $x19
	tbnz	w0, #0, .LBB3_7
.Ltmp58:
.LBB3_6:
	//DEBUG_VALUE: pch_shrink_read_pages:ra_pages <- $x19
	.loc	1 399 5 is_stmt 1       // /mnt/disk/jenkins/workspace/release/opensource/component_code/vendor/huawei/extra/build/build_script/kirin_kernel_release/kernel/mm/pagecache_manage.c:399:5
	ldr	x8, [x22, :lo12:pch_info]
	.loc	1 399 15 is_stmt 0      // /mnt/disk/jenkins/workspace/release/opensource/component_code/vendor/huawei/extra/build/build_script/kirin_kernel_release/kernel/mm/pagecache_manage.c:399:15
	ldr	w8, [x8, #220]
.Ltmp59:
	.loc	1 398 6 is_stmt 1       // /mnt/disk/jenkins/workspace/release/opensource/component_code/vendor/huawei/extra/build/build_script/kirin_kernel_release/kernel/mm/pagecache_manage.c:398:6
	cmp	x19, x8
	csel	x19, x8, x19, hi
.Ltmp60:
.LBB3_7:
	.loc	1 0 0 is_stmt 0         // /mnt/disk/jenkins/workspace/release/opensource/component_code/vendor/huawei/extra/build/build_script/kirin_kernel_release/kernel/mm/pagecache_manage.c:0:0
	cmp	x19, #512               // =512
	orr	w8, wzr, #0x200
	csel	x0, x19, x8, lo
	.loc	1 403 1 is_stmt 1       // /mnt/disk/jenkins/workspace/release/opensource/component_code/vendor/huawei/extra/build/build_script/kirin_kernel_release/kernel/mm/pagecache_manage.c:403:1
	ldp	x29, x30, [sp, #32]     // 16-byte Folded Reload
	ldp	x20, x19, [sp, #16]     // 16-byte Folded Reload
	ldp	x22, x21, [sp], #48     // 16-byte Folded Reload
	ret
.Ltmp61:
.Lfunc_end3:
	.size	pch_shrink_read_pages, .Lfunc_end3-pch_shrink_read_pages
	.cfi_endproc
                                        // -- End function
	.section	.text.pch_shrink_mmap_pages,"ax",@progbits
	.hidden	pch_shrink_mmap_pages   // -- Begin function pch_shrink_mmap_pages
	.globl	pch_shrink_mmap_pages
	.p2align	2
	.type	pch_shrink_mmap_pages,@function
pch_shrink_mmap_pages:                  // @pch_shrink_mmap_pages
.Lfunc_begin4:
	.loc	1 414 0                 // /mnt/disk/jenkins/workspace/release/opensource/component_code/vendor/huawei/extra/build/build_script/kirin_kernel_release/kernel/mm/pagecache_manage.c:414:0
	.cfi_startproc
// %bb.0:
	stp	x22, x21, [sp, #-48]!   // 16-byte Folded Spill
	stp	x20, x19, [sp, #16]     // 16-byte Folded Spill
	stp	x29, x30, [sp, #32]     // 16-byte Folded Spill
	add	x29, sp, #32            // =32
	.cfi_def_cfa w29, 16
	.cfi_offset w30, -8
	.cfi_offset w29, -16
	.cfi_offset w19, -24
	.cfi_offset w20, -32
	.cfi_offset w21, -40
	.cfi_offset w22, -48
	//DEBUG_VALUE: pch_shrink_mmap_pages:nr <- $x0
.Ltmp62:
	.loc	1 417 7 prologue_end    // /mnt/disk/jenkins/workspace/release/opensource/component_code/vendor/huawei/extra/build/build_script/kirin_kernel_release/kernel/mm/pagecache_manage.c:417:7
	adrp	x22, pch_info
	ldr	x8, [x22, :lo12:pch_info]
	mov	x19, x0
.Ltmp63:
	//DEBUG_VALUE: pch_shrink_mmap_pages:nr <- $x19
	.loc	1 417 17 is_stmt 0      // /mnt/disk/jenkins/workspace/release/opensource/component_code/vendor/huawei/extra/build/build_script/kirin_kernel_release/kernel/mm/pagecache_manage.c:417:17
	ldr	w9, [x8, #200]
.Ltmp64:
	.loc	1 417 6                 // /mnt/disk/jenkins/workspace/release/opensource/component_code/vendor/huawei/extra/build/build_script/kirin_kernel_release/kernel/mm/pagecache_manage.c:417:6
	cbz	w9, .LBB4_5
.Ltmp65:
// %bb.1:
	//DEBUG_VALUE: pch_shrink_mmap_pages:nr <- $x19
	.loc	1 420 16 is_stmt 1      // /mnt/disk/jenkins/workspace/release/opensource/component_code/vendor/huawei/extra/build/build_script/kirin_kernel_release/kernel/mm/pagecache_manage.c:420:16
	ldr	w8, [x8, #208]
	.loc	1 421 3                 // /mnt/disk/jenkins/workspace/release/opensource/component_code/vendor/huawei/extra/build/build_script/kirin_kernel_release/kernel/mm/pagecache_manage.c:421:3
	cmp	x8, x19
	csel	x19, x8, x19, lo
.Ltmp66:
	//DEBUG_VALUE: pch_lowmem_check:ret <- 0
	//DEBUG_VALUE: pch_shrink_mmap_pages:ra_pages <- $x19
	.loc	1 266 10                // /mnt/disk/jenkins/workspace/release/opensource/component_code/vendor/huawei/extra/build/build_script/kirin_kernel_release/kernel/mm/pagecache_manage.c:266:10
	bl	first_online_pgdat
	.loc	1 268 6                 // /mnt/disk/jenkins/workspace/release/opensource/component_code/vendor/huawei/extra/build/build_script/kirin_kernel_release/kernel/mm/pagecache_manage.c:268:6
	cbz	x0, .LBB4_5
.Ltmp67:
// %bb.2:
	//DEBUG_VALUE: pch_shrink_mmap_pages:ra_pages <- $x19
	.loc	1 271 14                // /mnt/disk/jenkins/workspace/release/opensource/component_code/vendor/huawei/extra/build/build_script/kirin_kernel_release/kernel/mm/pagecache_manage.c:271:14
	ldr	x8, [x0, #16]
.Ltmp68:
	.loc	1 272 7                 // /mnt/disk/jenkins/workspace/release/opensource/component_code/vendor/huawei/extra/build/build_script/kirin_kernel_release/kernel/mm/pagecache_manage.c:272:7
	mov	w1, wzr
	mov	w3, wzr
	mov	w4, wzr
.Ltmp69:
	.loc	1 271 37                // /mnt/disk/jenkins/workspace/release/opensource/component_code/vendor/huawei/extra/build/build_script/kirin_kernel_release/kernel/mm/pagecache_manage.c:271:37
	add	x2, x8, #2              // =2
.Ltmp70:
	//DEBUG_VALUE: pch_lowmem_check:watermark <- $x2
	.loc	1 0 0 is_stmt 0         // /mnt/disk/jenkins/workspace/release/opensource/component_code/vendor/huawei/extra/build/build_script/kirin_kernel_release/kernel/mm/pagecache_manage.c:0:0
	mov	x20, x0
.Ltmp71:
	//DEBUG_VALUE: pch_lowmem_check:zone <- $x20
	.loc	1 272 7 is_stmt 1       // /mnt/disk/jenkins/workspace/release/opensource/component_code/vendor/huawei/extra/build/build_script/kirin_kernel_release/kernel/mm/pagecache_manage.c:272:7
	bl	zone_watermark_ok
.Ltmp72:
	.loc	1 275 14                // /mnt/disk/jenkins/workspace/release/opensource/component_code/vendor/huawei/extra/build/build_script/kirin_kernel_release/kernel/mm/pagecache_manage.c:275:14
	ldr	x2, [x20, #8]
.Ltmp73:
	//DEBUG_VALUE: pch_lowmem_check:watermark <- $x2
	.loc	1 272 7                 // /mnt/disk/jenkins/workspace/release/opensource/component_code/vendor/huawei/extra/build/build_script/kirin_kernel_release/kernel/mm/pagecache_manage.c:272:7
	mov	w21, w0
.Ltmp74:
	.loc	1 276 7                 // /mnt/disk/jenkins/workspace/release/opensource/component_code/vendor/huawei/extra/build/build_script/kirin_kernel_release/kernel/mm/pagecache_manage.c:276:7
	mov	x0, x20
	mov	w1, wzr
	mov	w3, wzr
	mov	w4, wzr
	bl	zone_watermark_ok
.Ltmp75:
	.loc	1 0 7 is_stmt 0         // /mnt/disk/jenkins/workspace/release/opensource/component_code/vendor/huawei/extra/build/build_script/kirin_kernel_release/kernel/mm/pagecache_manage.c:0:7
	tbz	w21, #0, .LBB4_4
.Ltmp76:
// %bb.3:
	//DEBUG_VALUE: pch_lowmem_check:zone <- $x20
	//DEBUG_VALUE: pch_shrink_mmap_pages:ra_pages <- $x19
	tbnz	w0, #0, .LBB4_5
.Ltmp77:
.LBB4_4:
	//DEBUG_VALUE: pch_shrink_mmap_pages:ra_pages <- $x19
	.loc	1 426 5 is_stmt 1       // /mnt/disk/jenkins/workspace/release/opensource/component_code/vendor/huawei/extra/build/build_script/kirin_kernel_release/kernel/mm/pagecache_manage.c:426:5
	ldr	x8, [x22, :lo12:pch_info]
	.loc	1 426 15 is_stmt 0      // /mnt/disk/jenkins/workspace/release/opensource/component_code/vendor/huawei/extra/build/build_script/kirin_kernel_release/kernel/mm/pagecache_manage.c:426:15
	ldr	w8, [x8, #220]
.Ltmp78:
	.loc	1 425 6 is_stmt 1       // /mnt/disk/jenkins/workspace/release/opensource/component_code/vendor/huawei/extra/build/build_script/kirin_kernel_release/kernel/mm/pagecache_manage.c:425:6
	cmp	x19, x8
	csel	x19, x8, x19, hi
.Ltmp79:
.LBB4_5:
	.loc	1 0 0 is_stmt 0         // /mnt/disk/jenkins/workspace/release/opensource/component_code/vendor/huawei/extra/build/build_script/kirin_kernel_release/kernel/mm/pagecache_manage.c:0:0
	cmp	x19, #512               // =512
	orr	w8, wzr, #0x200
	csel	x0, x19, x8, lo
	.loc	1 430 1 is_stmt 1       // /mnt/disk/jenkins/workspace/release/opensource/component_code/vendor/huawei/extra/build/build_script/kirin_kernel_release/kernel/mm/pagecache_manage.c:430:1
	ldp	x29, x30, [sp, #32]     // 16-byte Folded Reload
	ldp	x20, x19, [sp, #16]     // 16-byte Folded Reload
	ldp	x22, x21, [sp], #48     // 16-byte Folded Reload
	ret
.Ltmp80:
.Lfunc_end4:
	.size	pch_shrink_mmap_pages, .Lfunc_end4-pch_shrink_mmap_pages
	.cfi_endproc
                                        // -- End function
	.section	.text.pch_shrink_mmap_async_pages,"ax",@progbits
	.hidden	pch_shrink_mmap_async_pages // -- Begin function pch_shrink_mmap_async_pages
	.globl	pch_shrink_mmap_async_pages
	.p2align	2
	.type	pch_shrink_mmap_async_pages,@function
pch_shrink_mmap_async_pages:            // @pch_shrink_mmap_async_pages
.Lfunc_begin5:
	.loc	1 441 0                 // /mnt/disk/jenkins/workspace/release/opensource/component_code/vendor/huawei/extra/build/build_script/kirin_kernel_release/kernel/mm/pagecache_manage.c:441:0
	.cfi_startproc
// %bb.0:
	str	x21, [sp, #-48]!        // 8-byte Folded Spill
	stp	x20, x19, [sp, #16]     // 16-byte Folded Spill
	stp	x29, x30, [sp, #32]     // 16-byte Folded Spill
	add	x29, sp, #32            // =32
	.cfi_def_cfa w29, 16
	.cfi_offset w30, -8
	.cfi_offset w29, -16
	.cfi_offset w19, -24
	.cfi_offset w20, -32
	.cfi_offset w21, -48
	//DEBUG_VALUE: pch_shrink_mmap_async_pages:nr <- $x0
.Ltmp81:
	//DEBUG_VALUE: __UNIQUE_ID_min1_54 <- $x0
	.loc	1 444 7 prologue_end    // /mnt/disk/jenkins/workspace/release/opensource/component_code/vendor/huawei/extra/build/build_script/kirin_kernel_release/kernel/mm/pagecache_manage.c:444:7
	adrp	x8, pch_info
	ldr	x8, [x8, :lo12:pch_info]
	mov	x19, x0
.Ltmp82:
	//DEBUG_VALUE: __UNIQUE_ID_min1_54 <- $x19
	//DEBUG_VALUE: pch_shrink_mmap_async_pages:nr <- $x19
	.loc	1 444 17 is_stmt 0      // /mnt/disk/jenkins/workspace/release/opensource/component_code/vendor/huawei/extra/build/build_script/kirin_kernel_release/kernel/mm/pagecache_manage.c:444:17
	ldr	w8, [x8, #200]
.Ltmp83:
	.loc	1 444 6                 // /mnt/disk/jenkins/workspace/release/opensource/component_code/vendor/huawei/extra/build/build_script/kirin_kernel_release/kernel/mm/pagecache_manage.c:444:6
	cbz	w8, .LBB5_5
.Ltmp84:
// %bb.1:
	//DEBUG_VALUE: pch_shrink_mmap_async_pages:nr <- $x19
	//DEBUG_VALUE: pch_lowmem_check:ret <- 0
	.loc	1 266 10 is_stmt 1      // /mnt/disk/jenkins/workspace/release/opensource/component_code/vendor/huawei/extra/build/build_script/kirin_kernel_release/kernel/mm/pagecache_manage.c:266:10
	bl	first_online_pgdat
	.loc	1 268 6                 // /mnt/disk/jenkins/workspace/release/opensource/component_code/vendor/huawei/extra/build/build_script/kirin_kernel_release/kernel/mm/pagecache_manage.c:268:6
	cbz	x0, .LBB5_4
.Ltmp85:
// %bb.2:
	//DEBUG_VALUE: pch_shrink_mmap_async_pages:nr <- $x19
	.loc	1 271 14                // /mnt/disk/jenkins/workspace/release/opensource/component_code/vendor/huawei/extra/build/build_script/kirin_kernel_release/kernel/mm/pagecache_manage.c:271:14
	ldr	x8, [x0, #16]
.Ltmp86:
	.loc	1 272 7                 // /mnt/disk/jenkins/workspace/release/opensource/component_code/vendor/huawei/extra/build/build_script/kirin_kernel_release/kernel/mm/pagecache_manage.c:272:7
	mov	w1, wzr
	mov	w3, wzr
	mov	w4, wzr
.Ltmp87:
	.loc	1 271 37                // /mnt/disk/jenkins/workspace/release/opensource/component_code/vendor/huawei/extra/build/build_script/kirin_kernel_release/kernel/mm/pagecache_manage.c:271:37
	add	x2, x8, #2              // =2
.Ltmp88:
	//DEBUG_VALUE: pch_lowmem_check:watermark <- $x2
	.loc	1 0 0 is_stmt 0         // /mnt/disk/jenkins/workspace/release/opensource/component_code/vendor/huawei/extra/build/build_script/kirin_kernel_release/kernel/mm/pagecache_manage.c:0:0
	mov	x20, x0
.Ltmp89:
	//DEBUG_VALUE: pch_lowmem_check:zone <- $x20
	.loc	1 272 7 is_stmt 1       // /mnt/disk/jenkins/workspace/release/opensource/component_code/vendor/huawei/extra/build/build_script/kirin_kernel_release/kernel/mm/pagecache_manage.c:272:7
	bl	zone_watermark_ok
.Ltmp90:
	.loc	1 275 14                // /mnt/disk/jenkins/workspace/release/opensource/component_code/vendor/huawei/extra/build/build_script/kirin_kernel_release/kernel/mm/pagecache_manage.c:275:14
	ldr	x2, [x20, #8]
.Ltmp91:
	//DEBUG_VALUE: pch_lowmem_check:watermark <- $x2
	.loc	1 272 7                 // /mnt/disk/jenkins/workspace/release/opensource/component_code/vendor/huawei/extra/build/build_script/kirin_kernel_release/kernel/mm/pagecache_manage.c:272:7
	mov	w21, w0
.Ltmp92:
	.loc	1 276 7                 // /mnt/disk/jenkins/workspace/release/opensource/component_code/vendor/huawei/extra/build/build_script/kirin_kernel_release/kernel/mm/pagecache_manage.c:276:7
	mov	x0, x20
	mov	w1, wzr
	mov	w3, wzr
	mov	w4, wzr
	bl	zone_watermark_ok
.Ltmp93:
	mov	w8, w0
	mov	x0, xzr
	tbz	w21, #0, .LBB5_6
.Ltmp94:
// %bb.3:
	//DEBUG_VALUE: pch_lowmem_check:zone <- $x20
	//DEBUG_VALUE: pch_shrink_mmap_async_pages:nr <- $x19
	.loc	1 0 7 is_stmt 0         // /mnt/disk/jenkins/workspace/release/opensource/component_code/vendor/huawei/extra/build/build_script/kirin_kernel_release/kernel/mm/pagecache_manage.c:0:7
	tbz	w8, #0, .LBB5_6
.Ltmp95:
.LBB5_4:
	//DEBUG_VALUE: pch_shrink_mmap_async_pages:nr <- $x19
	mov	x0, x19
	b	.LBB5_6
.Ltmp96:
.LBB5_5:
	//DEBUG_VALUE: pch_shrink_mmap_async_pages:nr <- $x19
	//DEBUG_VALUE: __UNIQUE_ID_min1_54 <- $x19
	//DEBUG_VALUE: __UNIQUE_ID_min2_55 <- 512
	.loc	1 445 10 is_stmt 1      // /mnt/disk/jenkins/workspace/release/opensource/component_code/vendor/huawei/extra/build/build_script/kirin_kernel_release/kernel/mm/pagecache_manage.c:445:10
	cmp	x19, #512               // =512
	orr	w8, wzr, #0x200
	csel	x0, x19, x8, lo
.Ltmp97:
.LBB5_6:
	//DEBUG_VALUE: pch_shrink_mmap_async_pages:nr <- $x19
	.loc	1 453 1                 // /mnt/disk/jenkins/workspace/release/opensource/component_code/vendor/huawei/extra/build/build_script/kirin_kernel_release/kernel/mm/pagecache_manage.c:453:1
	ldp	x29, x30, [sp, #32]     // 16-byte Folded Reload
	ldp	x20, x19, [sp, #16]     // 16-byte Folded Reload
.Ltmp98:
	ldr	x21, [sp], #48          // 8-byte Folded Reload
	ret
.Ltmp99:
.Lfunc_end5:
	.size	pch_shrink_mmap_async_pages, .Lfunc_end5-pch_shrink_mmap_async_pages
	.cfi_endproc
                                        // -- End function
	.section	.text.pch_read_around,"ax",@progbits
	.hidden	pch_read_around         // -- Begin function pch_read_around
	.globl	pch_read_around
	.p2align	2
	.type	pch_read_around,@function
pch_read_around:                        // @pch_read_around
.Lfunc_begin6:
	.loc	1 631 0                 // /mnt/disk/jenkins/workspace/release/opensource/component_code/vendor/huawei/extra/build/build_script/kirin_kernel_release/kernel/mm/pagecache_manage.c:631:0
	.cfi_startproc
// %bb.0:
	sub	sp, sp, #240            // =240
	stp	x28, x27, [sp, #144]    // 16-byte Folded Spill
	stp	x26, x25, [sp, #160]    // 16-byte Folded Spill
	stp	x24, x23, [sp, #176]    // 16-byte Folded Spill
	stp	x22, x21, [sp, #192]    // 16-byte Folded Spill
	stp	x20, x19, [sp, #208]    // 16-byte Folded Spill
	stp	x29, x30, [sp, #224]    // 16-byte Folded Spill
	add	x29, sp, #224           // =224
	.cfi_def_cfa w29, 16
	.cfi_offset w30, -8
	.cfi_offset w29, -16
	.cfi_offset w19, -24
	.cfi_offset w20, -32
	.cfi_offset w21, -40
	.cfi_offset w22, -48
	.cfi_offset w23, -56
	.cfi_offset w24, -64
	.cfi_offset w25, -72
	.cfi_offset w26, -80
	.cfi_offset w27, -88
	.cfi_offset w28, -96
	//DEBUG_VALUE: pch_read_around:ra <- $x0
	//DEBUG_VALUE: pch_read_around:mapping <- $x1
	//DEBUG_VALUE: pch_read_around:file <- $x2
	//DEBUG_VALUE: pch_read_around:offset <- $x3
.Ltmp100:
	//DEBUG_VALUE: pch_do_page_cache_readaround:mapping <- $x1
	//DEBUG_VALUE: readahead_gfp_mask:x <- $x1
	//DEBUG_VALUE: mapping_gfp_mask:mapping <- $x1
	//DEBUG_VALUE: pch_do_page_cache_readaround:filp <- $x2
	adrp	x8, __stack_chk_guard
	ldr	x8, [x8, :lo12:__stack_chk_guard]
.Ltmp101:
	.loc	1 417 7 prologue_end    // /mnt/disk/jenkins/workspace/release/opensource/component_code/vendor/huawei/extra/build/build_script/kirin_kernel_release/kernel/mm/pagecache_manage.c:417:7
	adrp	x23, pch_info
	mov	x20, x3
	mov	x25, x2
.Ltmp102:
	//DEBUG_VALUE: pch_do_page_cache_readaround:filp <- $x25
	.loc	1 0 7 is_stmt 0         // /mnt/disk/jenkins/workspace/release/opensource/component_code/vendor/huawei/extra/build/build_script/kirin_kernel_release/kernel/mm/pagecache_manage.c:0:7
	stur	x8, [x29, #-88]
.Ltmp103:
	//DEBUG_VALUE: pch_read_around:offset <- $x20
	//DEBUG_VALUE: pch_read_around:file <- $x25
	//DEBUG_VALUE: pch_read_around:ra <- $x24
	.loc	1 417 7                 // /mnt/disk/jenkins/workspace/release/opensource/component_code/vendor/huawei/extra/build/build_script/kirin_kernel_release/kernel/mm/pagecache_manage.c:417:7
	ldr	x8, [x23, :lo12:pch_info]
.Ltmp104:
	.loc	1 637 35 is_stmt 1      // /mnt/disk/jenkins/workspace/release/opensource/component_code/vendor/huawei/extra/build/build_script/kirin_kernel_release/kernel/mm/pagecache_manage.c:637:35
	ldr	w22, [x0, #16]
	mov	x24, x0
.Ltmp105:
	.loc	1 0 35 is_stmt 0        // /mnt/disk/jenkins/workspace/release/opensource/component_code/vendor/huawei/extra/build/build_script/kirin_kernel_release/kernel/mm/pagecache_manage.c:0:35
	mov	x26, x1
.Ltmp106:
	//DEBUG_VALUE: pch_shrink_mmap_pages:nr <- $x22
	//DEBUG_VALUE: mapping_gfp_mask:mapping <- $x26
	//DEBUG_VALUE: readahead_gfp_mask:x <- $x26
	//DEBUG_VALUE: pch_do_page_cache_readaround:mapping <- $x26
	//DEBUG_VALUE: pch_read_around:mapping <- $x26
	.loc	1 417 17 is_stmt 1      // /mnt/disk/jenkins/workspace/release/opensource/component_code/vendor/huawei/extra/build/build_script/kirin_kernel_release/kernel/mm/pagecache_manage.c:417:17
	ldr	w9, [x8, #200]
.Ltmp107:
	.loc	1 417 6 is_stmt 0       // /mnt/disk/jenkins/workspace/release/opensource/component_code/vendor/huawei/extra/build/build_script/kirin_kernel_release/kernel/mm/pagecache_manage.c:417:6
	cbz	w9, .LBB6_5
.Ltmp108:
// %bb.1:
	//DEBUG_VALUE: pch_read_around:mapping <- $x26
	//DEBUG_VALUE: pch_shrink_mmap_pages:nr <- $x22
	//DEBUG_VALUE: pch_read_around:file <- $x25
	//DEBUG_VALUE: pch_read_around:offset <- $x20
	.loc	1 420 16 is_stmt 1      // /mnt/disk/jenkins/workspace/release/opensource/component_code/vendor/huawei/extra/build/build_script/kirin_kernel_release/kernel/mm/pagecache_manage.c:420:16
	ldr	w8, [x8, #208]
	.loc	1 421 3                 // /mnt/disk/jenkins/workspace/release/opensource/component_code/vendor/huawei/extra/build/build_script/kirin_kernel_release/kernel/mm/pagecache_manage.c:421:3
	cmp	x8, x22
	csel	x22, x8, x22, lo
.Ltmp109:
	//DEBUG_VALUE: pch_lowmem_check:ret <- 0
	//DEBUG_VALUE: pch_shrink_mmap_pages:ra_pages <- $x22
	.loc	1 266 10                // /mnt/disk/jenkins/workspace/release/opensource/component_code/vendor/huawei/extra/build/build_script/kirin_kernel_release/kernel/mm/pagecache_manage.c:266:10
	bl	first_online_pgdat
	.loc	1 268 6                 // /mnt/disk/jenkins/workspace/release/opensource/component_code/vendor/huawei/extra/build/build_script/kirin_kernel_release/kernel/mm/pagecache_manage.c:268:6
	cbz	x0, .LBB6_5
.Ltmp110:
// %bb.2:
	//DEBUG_VALUE: pch_shrink_mmap_pages:ra_pages <- $x22
	//DEBUG_VALUE: pch_read_around:mapping <- $x26
	//DEBUG_VALUE: pch_read_around:file <- $x25
	//DEBUG_VALUE: pch_read_around:offset <- $x20
	.loc	1 271 14                // /mnt/disk/jenkins/workspace/release/opensource/component_code/vendor/huawei/extra/build/build_script/kirin_kernel_release/kernel/mm/pagecache_manage.c:271:14
	ldr	x8, [x0, #16]
.Ltmp111:
	.loc	1 272 7                 // /mnt/disk/jenkins/workspace/release/opensource/component_code/vendor/huawei/extra/build/build_script/kirin_kernel_release/kernel/mm/pagecache_manage.c:272:7
	mov	w1, wzr
	mov	w3, wzr
	mov	w4, wzr
.Ltmp112:
	.loc	1 271 37                // /mnt/disk/jenkins/workspace/release/opensource/component_code/vendor/huawei/extra/build/build_script/kirin_kernel_release/kernel/mm/pagecache_manage.c:271:37
	add	x2, x8, #2              // =2
.Ltmp113:
	//DEBUG_VALUE: pch_lowmem_check:watermark <- $x2
	.loc	1 0 0 is_stmt 0         // /mnt/disk/jenkins/workspace/release/opensource/component_code/vendor/huawei/extra/build/build_script/kirin_kernel_release/kernel/mm/pagecache_manage.c:0:0
	mov	x19, x0
.Ltmp114:
	//DEBUG_VALUE: pch_lowmem_check:zone <- $x19
	.loc	1 272 7 is_stmt 1       // /mnt/disk/jenkins/workspace/release/opensource/component_code/vendor/huawei/extra/build/build_script/kirin_kernel_release/kernel/mm/pagecache_manage.c:272:7
	bl	zone_watermark_ok
.Ltmp115:
	.loc	1 275 14                // /mnt/disk/jenkins/workspace/release/opensource/component_code/vendor/huawei/extra/build/build_script/kirin_kernel_release/kernel/mm/pagecache_manage.c:275:14
	ldr	x2, [x19, #8]
.Ltmp116:
	//DEBUG_VALUE: pch_lowmem_check:watermark <- $x2
	.loc	1 272 7                 // /mnt/disk/jenkins/workspace/release/opensource/component_code/vendor/huawei/extra/build/build_script/kirin_kernel_release/kernel/mm/pagecache_manage.c:272:7
	mov	w21, w0
.Ltmp117:
	.loc	1 276 7                 // /mnt/disk/jenkins/workspace/release/opensource/component_code/vendor/huawei/extra/build/build_script/kirin_kernel_release/kernel/mm/pagecache_manage.c:276:7
	mov	x0, x19
	mov	w1, wzr
	mov	w3, wzr
	mov	w4, wzr
	bl	zone_watermark_ok
.Ltmp118:
	.loc	1 0 7 is_stmt 0         // /mnt/disk/jenkins/workspace/release/opensource/component_code/vendor/huawei/extra/build/build_script/kirin_kernel_release/kernel/mm/pagecache_manage.c:0:7
	tbz	w21, #0, .LBB6_4
.Ltmp119:
// %bb.3:
	//DEBUG_VALUE: pch_lowmem_check:zone <- $x19
	//DEBUG_VALUE: pch_shrink_mmap_pages:ra_pages <- $x22
	//DEBUG_VALUE: pch_read_around:mapping <- $x26
	//DEBUG_VALUE: pch_read_around:file <- $x25
	//DEBUG_VALUE: pch_read_around:offset <- $x20
	tbnz	w0, #0, .LBB6_5
.Ltmp120:
.LBB6_4:
	//DEBUG_VALUE: pch_shrink_mmap_pages:ra_pages <- $x22
	//DEBUG_VALUE: pch_read_around:mapping <- $x26
	//DEBUG_VALUE: pch_read_around:file <- $x25
	//DEBUG_VALUE: pch_read_around:offset <- $x20
	.loc	1 426 5 is_stmt 1       // /mnt/disk/jenkins/workspace/release/opensource/component_code/vendor/huawei/extra/build/build_script/kirin_kernel_release/kernel/mm/pagecache_manage.c:426:5
	ldr	x8, [x23, :lo12:pch_info]
	.loc	1 426 15 is_stmt 0      // /mnt/disk/jenkins/workspace/release/opensource/component_code/vendor/huawei/extra/build/build_script/kirin_kernel_release/kernel/mm/pagecache_manage.c:426:15
	ldr	w8, [x8, #220]
.Ltmp121:
	.loc	1 425 6 is_stmt 1       // /mnt/disk/jenkins/workspace/release/opensource/component_code/vendor/huawei/extra/build/build_script/kirin_kernel_release/kernel/mm/pagecache_manage.c:425:6
	cmp	x22, x8
	csel	x22, x8, x22, hi
.Ltmp122:
.LBB6_5:
	//DEBUG_VALUE: pch_read_around:mapping <- $x26
	//DEBUG_VALUE: pch_read_around:file <- $x25
	//DEBUG_VALUE: pch_read_around:offset <- $x20
	.loc	1 519 33                // /mnt/disk/jenkins/workspace/release/opensource/component_code/vendor/huawei/extra/build/build_script/kirin_kernel_release/kernel/mm/pagecache_manage.c:519:33
	ldr	x11, [x26]
.Ltmp123:
	//DEBUG_VALUE: pch_do_page_cache_readaround:inode <- $x11
	.loc	1 0 0 is_stmt 0         // /mnt/disk/jenkins/workspace/release/opensource/component_code/vendor/huawei/extra/build/build_script/kirin_kernel_release/kernel/mm/pagecache_manage.c:0:0
	cmp	x22, #512               // =512
	orr	w8, wzr, #0x200
	add	x9, sp, #104            // =104
	add	x10, sp, #88            // =88
	csel	x21, x22, x8, lo
.Ltmp124:
	//DEBUG_VALUE: pch_read_around:size <- $x21
	//DEBUG_VALUE: pch_do_page_cache_readaround:nr_to_read <- $x21
	//DEBUG_VALUE: pch_do_page_cache_readaround:old_nr_to_read <- $x21
	.loc	1 522 2 is_stmt 1       // /mnt/disk/jenkins/workspace/release/opensource/component_code/vendor/huawei/extra/build/build_script/kirin_kernel_release/kernel/mm/pagecache_manage.c:522:2
	stp	x9, x9, [sp, #104]
	//DEBUG_VALUE: pch_do_page_cache_readaround:inode <- $x11
	.loc	1 523 2                 // /mnt/disk/jenkins/workspace/release/opensource/component_code/vendor/huawei/extra/build/build_script/kirin_kernel_release/kernel/mm/pagecache_manage.c:523:2
	stp	x10, x10, [sp, #88]
.Ltmp125:
	//DEBUG_VALUE: pch_do_page_cache_readaround:ret <- 0
	//DEBUG_VALUE: __UNIQUE_ID_min1_58 <- 0
	.loc	1 640 10                // /mnt/disk/jenkins/workspace/release/opensource/component_code/vendor/huawei/extra/build/build_script/kirin_kernel_release/kernel/mm/pagecache_manage.c:640:10
	sub	x8, x20, x21, lsr #1
.Ltmp126:
	//DEBUG_VALUE: __UNIQUE_ID_min2_59 <- $x8
	bic	x23, x8, x8, asr #63
.Ltmp127:
	//DEBUG_VALUE: pch_read_around:start <- $x23
	//DEBUG_VALUE: pch_reorder_io_list:offset <- $x23
	.loc	38 795 16               // /mnt/disk/jenkins/workspace/release/opensource/component_code/vendor/huawei/extra/build/build_script/kirin_kernel_release/kernel/include/linux/fs.h:795:16
	ldr	x8, [x11, #80]
.Ltmp128:
	//DEBUG_VALUE: pch_do_page_cache_readaround:isize <- $x8
	//DEBUG_VALUE: pch_do_page_cache_readaround:ret <- 0
	//DEBUG_VALUE: pch_do_page_cache_readaround:nr_to_read <- $x21
	//DEBUG_VALUE: pch_do_page_cache_readaround:old_nr_to_read <- $x21
	//DEBUG_VALUE: pch_do_page_cache_readaround:inode <- [DW_OP_plus_uconst 48] [$sp+0]
	.file	147 "/mnt/disk/jenkins/workspace/release/opensource/component_code/vendor/huawei/extra/build/build_script/kirin_kernel_release/kernel/include/linux/pagemap.h"
	.loc	147 100 18              // /mnt/disk/jenkins/workspace/release/opensource/component_code/vendor/huawei/extra/build/build_script/kirin_kernel_release/kernel/include/linux/pagemap.h:100:18
	ldr	w9, [x26, #208]
.Ltmp129:
	.loc	1 644 14                // /mnt/disk/jenkins/workspace/release/opensource/component_code/vendor/huawei/extra/build/build_script/kirin_kernel_release/kernel/mm/pagecache_manage.c:644:14
	sub	x10, x20, x23
.Ltmp130:
	.loc	1 539 6                 // /mnt/disk/jenkins/workspace/release/opensource/component_code/vendor/huawei/extra/build/build_script/kirin_kernel_release/kernel/mm/pagecache_manage.c:539:6
	cmp	x21, #127               // =127
	csel	x27, xzr, x10, hi
.Ltmp131:
	//DEBUG_VALUE: pch_do_page_cache_readaround:vip_n <- $x27
	.loc	1 0 6 is_stmt 0         // /mnt/disk/jenkins/workspace/release/opensource/component_code/vendor/huawei/extra/build/build_script/kirin_kernel_release/kernel/mm/pagecache_manage.c:0:6
	str	x11, [sp, #48]          // 8-byte Folded Spill
.Ltmp132:
	//DEBUG_VALUE: pch_do_page_cache_readaround:vip_n <- $x10
	//DEBUG_VALUE: pch_do_page_cache_readaround:lookahead_size <- 0
	//DEBUG_VALUE: pch_do_page_cache_readaround:offset <- $x23
	//DEBUG_VALUE: i_size_read:inode <- [DW_OP_plus_uconst 48] [$sp+0]
	.loc	1 530 21 is_stmt 1      // /mnt/disk/jenkins/workspace/release/opensource/component_code/vendor/huawei/extra/build/build_script/kirin_kernel_release/kernel/mm/pagecache_manage.c:530:21
	stp	xzr, xzr, [x29, #-104]
.Ltmp133:
	//DEBUG_VALUE: pch_do_page_cache_readaround:badpted <- 0
	.loc	1 542 6                 // /mnt/disk/jenkins/workspace/release/opensource/component_code/vendor/huawei/extra/build/build_script/kirin_kernel_release/kernel/mm/pagecache_manage.c:542:6
	cbz	x8, .LBB6_33
.Ltmp134:
// %bb.6:
	//DEBUG_VALUE: pch_do_page_cache_readaround:offset <- $x23
	//DEBUG_VALUE: pch_do_page_cache_readaround:vip_n <- $x10
	//DEBUG_VALUE: pch_do_page_cache_readaround:inode <- [DW_OP_plus_uconst 48] [$sp+0]
	//DEBUG_VALUE: pch_do_page_cache_readaround:isize <- $x8
	//DEBUG_VALUE: pch_read_around:start <- $x23
	//DEBUG_VALUE: pch_do_page_cache_readaround:old_nr_to_read <- $x21
	//DEBUG_VALUE: pch_do_page_cache_readaround:nr_to_read <- $x21
	//DEBUG_VALUE: pch_read_around:size <- $x21
	//DEBUG_VALUE: pch_read_around:mapping <- $x26
	//DEBUG_VALUE: pch_read_around:file <- $x25
	//DEBUG_VALUE: pch_read_around:offset <- $x20
	.loc	1 0 6 is_stmt 0         // /mnt/disk/jenkins/workspace/release/opensource/component_code/vendor/huawei/extra/build/build_script/kirin_kernel_release/kernel/mm/pagecache_manage.c:0:6
	mov	w10, #4864
.Ltmp135:
	.loc	1 549 22 is_stmt 1      // /mnt/disk/jenkins/workspace/release/opensource/component_code/vendor/huawei/extra/build/build_script/kirin_kernel_release/kernel/mm/pagecache_manage.c:549:22
	sub	x8, x8, #1              // =1
.Ltmp136:
	.loc	1 0 0 is_stmt 0         // /mnt/disk/jenkins/workspace/release/opensource/component_code/vendor/huawei/extra/build/build_script/kirin_kernel_release/kernel/mm/pagecache_manage.c:0:0
	orr	w9, w9, w10
.Ltmp137:
	//DEBUG_VALUE: pch_do_page_cache_readaround:gfp_mask <- [DW_OP_plus_uconst 60] [$sp+0]
	//DEBUG_VALUE: __page_cache_alloc:gfp <- [DW_OP_plus_uconst 60] [$sp+0]
	//DEBUG_VALUE: alloc_pages_node:gfp_mask <- [DW_OP_plus_uconst 60] [$sp+0]
	//DEBUG_VALUE: __alloc_pages_node:gfp_mask <- [DW_OP_plus_uconst 60] [$sp+0]
	//DEBUG_VALUE: __alloc_pages:gfp_mask <- [DW_OP_plus_uconst 60] [$sp+0]
	str	w9, [sp, #60]           // 4-byte Folded Spill
	.loc	1 549 27                // /mnt/disk/jenkins/workspace/release/opensource/component_code/vendor/huawei/extra/build/build_script/kirin_kernel_release/kernel/mm/pagecache_manage.c:549:27
	asr	x19, x8, #12
.Ltmp138:
	//DEBUG_VALUE: pch_do_page_cache_readaround:end_index <- $x19
	.loc	1 552 12 is_stmt 1      // /mnt/disk/jenkins/workspace/release/opensource/component_code/vendor/huawei/extra/build/build_script/kirin_kernel_release/kernel/mm/pagecache_manage.c:552:12
	bl	file_map_ra_adapt
	mov	x8, x21
	str	w0, [sp, #36]           // 4-byte Folded Spill
	.loc	1 553 6                 // /mnt/disk/jenkins/workspace/release/opensource/component_code/vendor/huawei/extra/build/build_script/kirin_kernel_release/kernel/mm/pagecache_manage.c:553:6
	tbz	w0, #0, .LBB6_8
.Ltmp139:
// %bb.7:
	//DEBUG_VALUE: pch_do_page_cache_readaround:end_index <- $x19
	//DEBUG_VALUE: pch_do_page_cache_readaround:gfp_mask <- [DW_OP_plus_uconst 60] [$sp+0]
	//DEBUG_VALUE: pch_do_page_cache_readaround:offset <- $x23
	//DEBUG_VALUE: pch_do_page_cache_readaround:inode <- [DW_OP_plus_uconst 48] [$sp+0]
	//DEBUG_VALUE: pch_read_around:start <- $x23
	//DEBUG_VALUE: pch_do_page_cache_readaround:old_nr_to_read <- $x21
	//DEBUG_VALUE: pch_do_page_cache_readaround:nr_to_read <- $x21
	//DEBUG_VALUE: pch_read_around:size <- $x21
	//DEBUG_VALUE: pch_read_around:mapping <- $x26
	//DEBUG_VALUE: pch_read_around:file <- $x25
	//DEBUG_VALUE: pch_read_around:offset <- $x20
	.loc	1 0 6 is_stmt 0         // /mnt/disk/jenkins/workspace/release/opensource/component_code/vendor/huawei/extra/build/build_script/kirin_kernel_release/kernel/mm/pagecache_manage.c:0:6
	ldr	x0, [sp, #48]           // 8-byte Folded Reload
.Ltmp140:
	.loc	1 554 16 is_stmt 1      // /mnt/disk/jenkins/workspace/release/opensource/component_code/vendor/huawei/extra/build/build_script/kirin_kernel_release/kernel/mm/pagecache_manage.c:554:16
	orr	w4, wzr, #0x1
	mov	x1, x23
	mov	x2, x21
	mov	x3, x19
	bl	file_map_data_analysis
	mov	x8, x0
.Ltmp141:
	//DEBUG_VALUE: pch_do_page_cache_readaround:nr_to_read <- $x8
.LBB6_8:
	//DEBUG_VALUE: pch_do_page_cache_readaround:end_index <- $x19
	//DEBUG_VALUE: pch_do_page_cache_readaround:gfp_mask <- [DW_OP_plus_uconst 60] [$sp+0]
	//DEBUG_VALUE: pch_do_page_cache_readaround:offset <- $x23
	//DEBUG_VALUE: pch_do_page_cache_readaround:inode <- [DW_OP_plus_uconst 48] [$sp+0]
	//DEBUG_VALUE: pch_read_around:start <- $x23
	//DEBUG_VALUE: pch_do_page_cache_readaround:old_nr_to_read <- $x21
	//DEBUG_VALUE: pch_read_around:size <- $x21
	//DEBUG_VALUE: pch_read_around:mapping <- $x26
	//DEBUG_VALUE: pch_read_around:file <- $x25
	//DEBUG_VALUE: pch_read_around:offset <- $x20
	//DEBUG_VALUE: pch_do_page_cache_readaround:nr_to_read <- $x8
	//DEBUG_VALUE: pch_do_page_cache_readaround:ret <- 0
	//DEBUG_VALUE: pch_do_page_cache_readaround:i <- 0
	.loc	1 563 30                // /mnt/disk/jenkins/workspace/release/opensource/component_code/vendor/huawei/extra/build/build_script/kirin_kernel_release/kernel/mm/pagecache_manage.c:563:30
	lsl	x28, x8, #1
	str	x21, [sp, #40]          // 8-byte Folded Spill
.Ltmp142:
	//DEBUG_VALUE: pch_read_around:size <- [DW_OP_plus_uconst 40] [$sp+0]
	.loc	1 0 30 is_stmt 0        // /mnt/disk/jenkins/workspace/release/opensource/component_code/vendor/huawei/extra/build/build_script/kirin_kernel_release/kernel/mm/pagecache_manage.c:0:30
	stp	x25, x24, [sp, #16]     // 16-byte Folded Spill
	str	x26, [sp, #8]           // 8-byte Folded Spill
.Ltmp143:
	.loc	1 563 2                 // /mnt/disk/jenkins/workspace/release/opensource/component_code/vendor/huawei/extra/build/build_script/kirin_kernel_release/kernel/mm/pagecache_manage.c:563:2
	cbz	x28, .LBB6_10
.Ltmp144:
// %bb.9:
	//DEBUG_VALUE: pch_read_around:size <- [DW_OP_plus_uconst 40] [$sp+0]
	//DEBUG_VALUE: pch_do_page_cache_readaround:nr_to_read <- $x8
	//DEBUG_VALUE: pch_do_page_cache_readaround:end_index <- $x19
	//DEBUG_VALUE: pch_do_page_cache_readaround:gfp_mask <- [DW_OP_plus_uconst 60] [$sp+0]
	//DEBUG_VALUE: pch_do_page_cache_readaround:offset <- $x23
	//DEBUG_VALUE: pch_do_page_cache_readaround:inode <- [DW_OP_plus_uconst 48] [$sp+0]
	//DEBUG_VALUE: pch_read_around:start <- $x23
	//DEBUG_VALUE: pch_do_page_cache_readaround:old_nr_to_read <- $x21
	//DEBUG_VALUE: pch_read_around:mapping <- $x26
	//DEBUG_VALUE: pch_read_around:file <- $x25
	//DEBUG_VALUE: pch_read_around:offset <- $x20
	.loc	1 0 2                   // /mnt/disk/jenkins/workspace/release/opensource/component_code/vendor/huawei/extra/build/build_script/kirin_kernel_release/kernel/mm/pagecache_manage.c:0:2
	mov	x10, x8
	sub	w8, w10, #1             // =1
.Ltmp145:
	sub	w9, w19, w23
	cmp	w8, w9
	add	x11, x26, #8            // =8
	csel	w26, w8, w9, lt
.Ltmp146:
	//DEBUG_VALUE: pch_get_index_vip_first:vip <- $w27
	//DEBUG_VALUE: pch_get_index_vip_first:max <- $w26
	ldr	x8, [sp, #40]           // 8-byte Folded Reload
	ldr	w9, [sp, #36]           // 4-byte Folded Reload
	mov	x22, xzr
	mov	w24, #-1
	cmp	x10, x8
	cset	w8, eq
	and	w8, w9, w8
	str	xzr, [sp, #80]          // 8-byte Folded Spill
	str	x11, [sp, #64]          // 8-byte Folded Spill
	str	x10, [sp]               // 8-byte Folded Spill
	str	w8, [sp, #76]           // 4-byte Folded Spill
	b	.LBB6_13
.Ltmp147:
.LBB6_10:
	//DEBUG_VALUE: pch_read_around:size <- [DW_OP_plus_uconst 40] [$sp+0]
	//DEBUG_VALUE: pch_do_page_cache_readaround:nr_to_read <- $x8
	//DEBUG_VALUE: pch_do_page_cache_readaround:end_index <- $x19
	//DEBUG_VALUE: pch_do_page_cache_readaround:gfp_mask <- [DW_OP_plus_uconst 60] [$sp+0]
	//DEBUG_VALUE: pch_do_page_cache_readaround:offset <- $x23
	//DEBUG_VALUE: pch_do_page_cache_readaround:inode <- [DW_OP_plus_uconst 48] [$sp+0]
	//DEBUG_VALUE: pch_read_around:start <- $x23
	//DEBUG_VALUE: pch_do_page_cache_readaround:old_nr_to_read <- $x21
	//DEBUG_VALUE: pch_read_around:mapping <- $x26
	//DEBUG_VALUE: pch_read_around:file <- $x25
	//DEBUG_VALUE: pch_read_around:offset <- $x20
	str	xzr, [sp, #80]          // 8-byte Folded Spill
	b	.LBB6_24
.Ltmp148:
.LBB6_11:                               //   in Loop: Header=BB6_13 Depth=1
	//DEBUG_VALUE: pch_read_around:size <- [DW_OP_plus_uconst 40] [$sp+0]
	//DEBUG_VALUE: pch_do_page_cache_readaround:page <- $x1
	//DEBUG_VALUE: pch_do_page_cache_readaround:pgofs <- $x19
	//DEBUG_VALUE: pch_do_page_cache_readaround:page_idx <- $w25
	//DEBUG_VALUE: pch_do_page_cache_readaround:i <- $x22
	//DEBUG_VALUE: pch_do_page_cache_readaround:ret <- [DW_OP_plus_uconst 80] [$sp+0]
	//DEBUG_VALUE: pch_do_page_cache_readaround:gfp_mask <- [DW_OP_plus_uconst 60] [$sp+0]
	//DEBUG_VALUE: pch_do_page_cache_readaround:offset <- $x23
	//DEBUG_VALUE: pch_do_page_cache_readaround:inode <- [DW_OP_plus_uconst 48] [$sp+0]
	//DEBUG_VALUE: pch_read_around:start <- $x23
	.loc	1 592 16 is_stmt 1      // /mnt/disk/jenkins/workspace/release/opensource/component_code/vendor/huawei/extra/build/build_script/kirin_kernel_release/kernel/mm/pagecache_manage.c:592:16
	str	x19, [x1, #16]
.Ltmp149:
	.file	148 "/mnt/disk/jenkins/workspace/release/opensource/component_code/vendor/huawei/extra/build/build_script/kirin_kernel_release/kernel/include/linux/list.h"
	.loc	148 79 30               // /mnt/disk/jenkins/workspace/release/opensource/component_code/vendor/huawei/extra/build/build_script/kirin_kernel_release/kernel/include/linux/list.h:79:30
	ldr	x8, [sp, #88]
	ldr	x10, [sp]               // 8-byte Folded Reload
.Ltmp150:
	.loc	1 593 20                // /mnt/disk/jenkins/workspace/release/opensource/component_code/vendor/huawei/extra/build/build_script/kirin_kernel_release/kernel/mm/pagecache_manage.c:593:20
	add	x9, x1, #32             // =32
.Ltmp151:
	.loc	148 63 13               // /mnt/disk/jenkins/workspace/release/opensource/component_code/vendor/huawei/extra/build/build_script/kirin_kernel_release/kernel/include/linux/list.h:63:13
	str	x9, [x8, #8]
.Ltmp152:
	.loc	1 594 8                 // /mnt/disk/jenkins/workspace/release/opensource/component_code/vendor/huawei/extra/build/build_script/kirin_kernel_release/kernel/mm/pagecache_manage.c:594:8
	cmp	x10, x20
.Ltmp153:
	//DEBUG_VALUE: list_add:new <- $x9
	//DEBUG_VALUE: __list_add:new <- $x9
	//DEBUG_VALUE: __list_add:next <- $x8
	.loc	148 64 12               // /mnt/disk/jenkins/workspace/release/opensource/component_code/vendor/huawei/extra/build/build_script/kirin_kernel_release/kernel/include/linux/list.h:64:12
	str	x8, [x1, #32]
.Ltmp154:
	//DEBUG_VALUE: __list_add:prev <- [DW_OP_plus_uconst 88] $sp
	//DEBUG_VALUE: list_add:head <- [DW_OP_plus_uconst 88] $sp
	//DEBUG_VALUE: pch_do_page_cache_readaround:page_pool <- [DW_OP_plus_uconst 88, DW_OP_deref] $sp
	.loc	148 65 12               // /mnt/disk/jenkins/workspace/release/opensource/component_code/vendor/huawei/extra/build/build_script/kirin_kernel_release/kernel/include/linux/list.h:65:12
	add	x8, sp, #88             // =88
.Ltmp155:
	str	x8, [x1, #40]
.Ltmp156:
	//DEBUG_VALUE: __write_once_size:size <- 8
	//DEBUG_VALUE: __write_once_size:res <- undef
	//DEBUG_VALUE: __write_once_size:p <- [DW_OP_plus_uconst 88] $sp
	.loc	145 213 31              // /mnt/disk/jenkins/workspace/release/opensource/component_code/vendor/huawei/extra/build/build_script/kirin_kernel_release/kernel/include/linux/compiler.h:213:31
	str	x9, [sp, #88]
.Ltmp157:
	.loc	1 594 8                 // /mnt/disk/jenkins/workspace/release/opensource/component_code/vendor/huawei/extra/build/build_script/kirin_kernel_release/kernel/mm/pagecache_manage.c:594:8
	b.ne	.LBB6_21
.Ltmp158:
// %bb.12:                              //   in Loop: Header=BB6_13 Depth=1
	//DEBUG_VALUE: pch_read_around:size <- [DW_OP_plus_uconst 40] [$sp+0]
	//DEBUG_VALUE: pch_do_page_cache_readaround:page <- $x1
	//DEBUG_VALUE: pch_do_page_cache_readaround:pgofs <- $x19
	//DEBUG_VALUE: pch_do_page_cache_readaround:page_idx <- $w25
	//DEBUG_VALUE: pch_do_page_cache_readaround:i <- $x22
	//DEBUG_VALUE: pch_do_page_cache_readaround:ret <- [DW_OP_plus_uconst 80] [$sp+0]
	//DEBUG_VALUE: pch_do_page_cache_readaround:page_pool <- [DW_OP_plus_uconst 88, DW_OP_deref] $sp
	//DEBUG_VALUE: pch_do_page_cache_readaround:gfp_mask <- [DW_OP_plus_uconst 60] [$sp+0]
	//DEBUG_VALUE: pch_do_page_cache_readaround:offset <- $x23
	//DEBUG_VALUE: pch_do_page_cache_readaround:inode <- [DW_OP_plus_uconst 48] [$sp+0]
	//DEBUG_VALUE: pch_read_around:start <- $x23
	.loc	144 343 1               // /mnt/disk/jenkins/workspace/release/opensource/component_code/vendor/huawei/extra/build/build_script/kirin_kernel_release/kernel/include/linux/page-flags.h:343:1
	mov	w0, #19
	bl	set_bit
.Ltmp159:
	.loc	144 0 1 is_stmt 0       // /mnt/disk/jenkins/workspace/release/opensource/component_code/vendor/huawei/extra/build/build_script/kirin_kernel_release/kernel/include/linux/page-flags.h:0:1
	b	.LBB6_21
.Ltmp160:
.LBB6_13:                               // =>This Inner Loop Header: Depth=1
	//DEBUG_VALUE: pch_read_around:size <- [DW_OP_plus_uconst 40] [$sp+0]
	//DEBUG_VALUE: pch_get_index_vip_first:max <- $w26
	//DEBUG_VALUE: pch_get_index_vip_first:vip <- $w27
	//DEBUG_VALUE: pch_do_page_cache_readaround:end_index <- $x19
	//DEBUG_VALUE: pch_do_page_cache_readaround:gfp_mask <- [DW_OP_plus_uconst 60] [$sp+0]
	//DEBUG_VALUE: pch_do_page_cache_readaround:offset <- $x23
	//DEBUG_VALUE: pch_do_page_cache_readaround:inode <- [DW_OP_plus_uconst 48] [$sp+0]
	//DEBUG_VALUE: pch_read_around:start <- $x23
	//DEBUG_VALUE: pch_do_page_cache_readaround:old_nr_to_read <- $x21
	//DEBUG_VALUE: pch_read_around:file <- $x25
	//DEBUG_VALUE: pch_read_around:offset <- $x20
	//DEBUG_VALUE: pch_do_page_cache_readaround:ret <- [DW_OP_plus_uconst 80] [$sp+0]
	//DEBUG_VALUE: pch_do_page_cache_readaround:i <- $x22
	//DEBUG_VALUE: pch_get_index_vip_first:min <- 0
	.loc	1 470 15 is_stmt 1      // /mnt/disk/jenkins/workspace/release/opensource/component_code/vendor/huawei/extra/build/build_script/kirin_kernel_release/kernel/mm/pagecache_manage.c:470:15
	tst	w22, #0x1
	csinc	w8, w24, w22, ne
	cmp	w8, #0                  // =0
	cinc	w8, w8, lt
	.loc	1 470 12 is_stmt 0      // /mnt/disk/jenkins/workspace/release/opensource/component_code/vendor/huawei/extra/build/build_script/kirin_kernel_release/kernel/mm/pagecache_manage.c:470:12
	add	w8, w27, w8, asr #1
.Ltmp161:
	//DEBUG_VALUE: pch_get_index_vip_first:ret <- $w8
	.loc	1 472 6 is_stmt 1       // /mnt/disk/jenkins/workspace/release/opensource/component_code/vendor/huawei/extra/build/build_script/kirin_kernel_release/kernel/mm/pagecache_manage.c:472:6
	cmp	w8, w26
.Ltmp162:
	.loc	1 472 10 is_stmt 0      // /mnt/disk/jenkins/workspace/release/opensource/component_code/vendor/huawei/extra/build/build_script/kirin_kernel_release/kernel/mm/pagecache_manage.c:472:10
	ccmp	w8, #0, #8, le
.Ltmp163:
	.loc	1 472 6                 // /mnt/disk/jenkins/workspace/release/opensource/component_code/vendor/huawei/extra/build/build_script/kirin_kernel_release/kernel/mm/pagecache_manage.c:472:6
	csinv	w25, w8, wzr, ge
.Ltmp164:
	//DEBUG_VALUE: pch_do_page_cache_readaround:page_idx <- $w25
	.loc	1 566 7 is_stmt 1       // /mnt/disk/jenkins/workspace/release/opensource/component_code/vendor/huawei/extra/build/build_script/kirin_kernel_release/kernel/mm/pagecache_manage.c:566:7
	tbnz	w25, #31, .LBB6_23
.Ltmp165:
// %bb.14:                              //   in Loop: Header=BB6_13 Depth=1
	//DEBUG_VALUE: pch_read_around:size <- [DW_OP_plus_uconst 40] [$sp+0]
	//DEBUG_VALUE: pch_do_page_cache_readaround:page_idx <- $w25
	//DEBUG_VALUE: pch_do_page_cache_readaround:i <- $x22
	//DEBUG_VALUE: pch_do_page_cache_readaround:ret <- [DW_OP_plus_uconst 80] [$sp+0]
	//DEBUG_VALUE: pch_do_page_cache_readaround:end_index <- $x19
	//DEBUG_VALUE: pch_do_page_cache_readaround:gfp_mask <- [DW_OP_plus_uconst 60] [$sp+0]
	//DEBUG_VALUE: pch_do_page_cache_readaround:offset <- $x23
	//DEBUG_VALUE: pch_do_page_cache_readaround:inode <- [DW_OP_plus_uconst 48] [$sp+0]
	//DEBUG_VALUE: pch_read_around:start <- $x23
	//DEBUG_VALUE: pch_do_page_cache_readaround:old_nr_to_read <- $x21
	//DEBUG_VALUE: pch_read_around:offset <- $x20
	.loc	1 0 7 is_stmt 0         // /mnt/disk/jenkins/workspace/release/opensource/component_code/vendor/huawei/extra/build/build_script/kirin_kernel_release/kernel/mm/pagecache_manage.c:0:7
	ldr	w8, [sp, #76]           // 4-byte Folded Reload
	.loc	1 569 20 is_stmt 1      // /mnt/disk/jenkins/workspace/release/opensource/component_code/vendor/huawei/extra/build/build_script/kirin_kernel_release/kernel/mm/pagecache_manage.c:569:20
	sxtw	x20, w25
.Ltmp166:
	.loc	1 569 18 is_stmt 0      // /mnt/disk/jenkins/workspace/release/opensource/component_code/vendor/huawei/extra/build/build_script/kirin_kernel_release/kernel/mm/pagecache_manage.c:569:18
	add	x19, x23, x20
.Ltmp167:
	//DEBUG_VALUE: pch_do_page_cache_readaround:pgofs <- $x19
	.loc	1 572 15 is_stmt 1      // /mnt/disk/jenkins/workspace/release/opensource/component_code/vendor/huawei/extra/build/build_script/kirin_kernel_release/kernel/mm/pagecache_manage.c:572:15
	cbz	w8, .LBB6_16
.Ltmp168:
// %bb.15:                              //   in Loop: Header=BB6_13 Depth=1
	//DEBUG_VALUE: pch_read_around:size <- [DW_OP_plus_uconst 40] [$sp+0]
	//DEBUG_VALUE: pch_do_page_cache_readaround:pgofs <- $x19
	//DEBUG_VALUE: pch_do_page_cache_readaround:page_idx <- $w25
	//DEBUG_VALUE: pch_do_page_cache_readaround:i <- $x22
	//DEBUG_VALUE: pch_do_page_cache_readaround:ret <- [DW_OP_plus_uconst 80] [$sp+0]
	//DEBUG_VALUE: pch_do_page_cache_readaround:gfp_mask <- [DW_OP_plus_uconst 60] [$sp+0]
	//DEBUG_VALUE: pch_do_page_cache_readaround:offset <- $x23
	//DEBUG_VALUE: pch_do_page_cache_readaround:inode <- [DW_OP_plus_uconst 48] [$sp+0]
	//DEBUG_VALUE: pch_read_around:start <- $x23
	//DEBUG_VALUE: pch_do_page_cache_readaround:old_nr_to_read <- $x21
	.loc	1 0 15 is_stmt 0        // /mnt/disk/jenkins/workspace/release/opensource/component_code/vendor/huawei/extra/build/build_script/kirin_kernel_release/kernel/mm/pagecache_manage.c:0:15
	ldr	x0, [sp, #48]           // 8-byte Folded Reload
	.loc	1 573 4 is_stmt 1       // /mnt/disk/jenkins/workspace/release/opensource/component_code/vendor/huawei/extra/build/build_script/kirin_kernel_release/kernel/mm/pagecache_manage.c:573:4
	mov	x1, x19
	bl	file_map_is_set
.Ltmp169:
	.loc	1 572 7                 // /mnt/disk/jenkins/workspace/release/opensource/component_code/vendor/huawei/extra/build/build_script/kirin_kernel_release/kernel/mm/pagecache_manage.c:572:7
	tbz	w0, #0, .LBB6_22
.Ltmp170:
.LBB6_16:                               //   in Loop: Header=BB6_13 Depth=1
	//DEBUG_VALUE: pch_read_around:size <- [DW_OP_plus_uconst 40] [$sp+0]
	//DEBUG_VALUE: pch_do_page_cache_readaround:pgofs <- $x19
	//DEBUG_VALUE: pch_do_page_cache_readaround:page_idx <- $w25
	//DEBUG_VALUE: pch_do_page_cache_readaround:i <- $x22
	//DEBUG_VALUE: pch_do_page_cache_readaround:ret <- [DW_OP_plus_uconst 80] [$sp+0]
	//DEBUG_VALUE: pch_do_page_cache_readaround:gfp_mask <- [DW_OP_plus_uconst 60] [$sp+0]
	//DEBUG_VALUE: pch_do_page_cache_readaround:offset <- $x23
	//DEBUG_VALUE: pch_do_page_cache_readaround:inode <- [DW_OP_plus_uconst 48] [$sp+0]
	//DEBUG_VALUE: pch_read_around:start <- $x23
	//DEBUG_VALUE: pch_do_page_cache_readaround:old_nr_to_read <- $x21
	.file	149 "/mnt/disk/jenkins/workspace/release/opensource/component_code/vendor/huawei/extra/build/build_script/kirin_kernel_release/kernel/include/linux/rcupdate.h"
	.loc	149 629 2               // /mnt/disk/jenkins/workspace/release/opensource/component_code/vendor/huawei/extra/build/build_script/kirin_kernel_release/kernel/include/linux/rcupdate.h:629:2
	bl	__rcu_read_lock
	ldr	x0, [sp, #64]           // 8-byte Folded Reload
.Ltmp171:
	.loc	1 579 10                // /mnt/disk/jenkins/workspace/release/opensource/component_code/vendor/huawei/extra/build/build_script/kirin_kernel_release/kernel/mm/pagecache_manage.c:579:10
	mov	x1, x19
	bl	radix_tree_lookup
	mov	x21, x0
.Ltmp172:
	//DEBUG_VALUE: pch_do_page_cache_readaround:page <- $x21
	//DEBUG_VALUE: radix_tree_exceptional_entry:arg <- $x21
	.loc	149 686 2               // /mnt/disk/jenkins/workspace/release/opensource/component_code/vendor/huawei/extra/build/build_script/kirin_kernel_release/kernel/include/linux/rcupdate.h:686:2
	bl	__rcu_read_unlock
.Ltmp173:
	.loc	1 581 12                // /mnt/disk/jenkins/workspace/release/opensource/component_code/vendor/huawei/extra/build/build_script/kirin_kernel_release/kernel/mm/pagecache_manage.c:581:12
	cbz	x21, .LBB6_18
.Ltmp174:
// %bb.17:                              //   in Loop: Header=BB6_13 Depth=1
	//DEBUG_VALUE: pch_read_around:size <- [DW_OP_plus_uconst 40] [$sp+0]
	//DEBUG_VALUE: pch_do_page_cache_readaround:page <- $x21
	//DEBUG_VALUE: pch_do_page_cache_readaround:pgofs <- $x19
	//DEBUG_VALUE: pch_do_page_cache_readaround:page_idx <- $w25
	//DEBUG_VALUE: pch_do_page_cache_readaround:i <- $x22
	//DEBUG_VALUE: pch_do_page_cache_readaround:ret <- [DW_OP_plus_uconst 80] [$sp+0]
	//DEBUG_VALUE: pch_do_page_cache_readaround:gfp_mask <- [DW_OP_plus_uconst 60] [$sp+0]
	//DEBUG_VALUE: pch_do_page_cache_readaround:offset <- $x23
	//DEBUG_VALUE: pch_do_page_cache_readaround:inode <- [DW_OP_plus_uconst 48] [$sp+0]
	//DEBUG_VALUE: pch_read_around:start <- $x23
	.loc	1 581 7 is_stmt 0       // /mnt/disk/jenkins/workspace/release/opensource/component_code/vendor/huawei/extra/build/build_script/kirin_kernel_release/kernel/mm/pagecache_manage.c:581:7
	tbz	w21, #1, .LBB6_23
.Ltmp175:
.LBB6_18:                               //   in Loop: Header=BB6_13 Depth=1
	//DEBUG_VALUE: pch_read_around:size <- [DW_OP_plus_uconst 40] [$sp+0]
	//DEBUG_VALUE: pch_do_page_cache_readaround:page <- $x21
	//DEBUG_VALUE: pch_do_page_cache_readaround:pgofs <- $x19
	//DEBUG_VALUE: pch_do_page_cache_readaround:page_idx <- $w25
	//DEBUG_VALUE: pch_do_page_cache_readaround:i <- $x22
	//DEBUG_VALUE: pch_do_page_cache_readaround:ret <- [DW_OP_plus_uconst 80] [$sp+0]
	//DEBUG_VALUE: pch_do_page_cache_readaround:gfp_mask <- [DW_OP_plus_uconst 60] [$sp+0]
	//DEBUG_VALUE: pch_do_page_cache_readaround:offset <- $x23
	//DEBUG_VALUE: pch_do_page_cache_readaround:inode <- [DW_OP_plus_uconst 48] [$sp+0]
	//DEBUG_VALUE: pch_read_around:start <- $x23
	//DEBUG_VALUE: alloc_pages_node:nid <- 0
	//DEBUG_VALUE: alloc_pages_node:order <- 0
	//DEBUG_VALUE: __alloc_pages_node:nid <- 0
	//DEBUG_VALUE: __alloc_pages_node:order <- 0
	//DEBUG_VALUE: __alloc_pages:order <- 0
	//DEBUG_VALUE: __alloc_pages:preferred_nid <- 0
	.loc	1 0 7                   // /mnt/disk/jenkins/workspace/release/opensource/component_code/vendor/huawei/extra/build/build_script/kirin_kernel_release/kernel/mm/pagecache_manage.c:0:7
	ldr	w0, [sp, #60]           // 4-byte Folded Reload
.Ltmp176:
	.file	150 "/mnt/disk/jenkins/workspace/release/opensource/component_code/vendor/huawei/extra/build/build_script/kirin_kernel_release/kernel/include/linux/gfp.h"
	.loc	150 465 9 is_stmt 1     // /mnt/disk/jenkins/workspace/release/opensource/component_code/vendor/huawei/extra/build/build_script/kirin_kernel_release/kernel/include/linux/gfp.h:465:9
	mov	w1, wzr
	mov	w2, wzr
	mov	x3, xzr
	bl	__alloc_pages_nodemask
.Ltmp177:
	.loc	1 585 7                 // /mnt/disk/jenkins/workspace/release/opensource/component_code/vendor/huawei/extra/build/build_script/kirin_kernel_release/kernel/mm/pagecache_manage.c:585:7
	cbz	x0, .LBB6_24
.Ltmp178:
// %bb.19:                              //   in Loop: Header=BB6_13 Depth=1
	//DEBUG_VALUE: pch_read_around:size <- [DW_OP_plus_uconst 40] [$sp+0]
	//DEBUG_VALUE: pch_do_page_cache_readaround:page <- $x21
	//DEBUG_VALUE: pch_do_page_cache_readaround:pgofs <- $x19
	//DEBUG_VALUE: pch_do_page_cache_readaround:page_idx <- $w25
	//DEBUG_VALUE: pch_do_page_cache_readaround:i <- $x22
	//DEBUG_VALUE: pch_do_page_cache_readaround:ret <- [DW_OP_plus_uconst 80] [$sp+0]
	//DEBUG_VALUE: pch_do_page_cache_readaround:gfp_mask <- [DW_OP_plus_uconst 60] [$sp+0]
	//DEBUG_VALUE: pch_do_page_cache_readaround:offset <- $x23
	//DEBUG_VALUE: pch_do_page_cache_readaround:inode <- [DW_OP_plus_uconst 48] [$sp+0]
	//DEBUG_VALUE: pch_read_around:start <- $x23
	.loc	1 0 0 is_stmt 0         // /mnt/disk/jenkins/workspace/release/opensource/component_code/vendor/huawei/extra/build/build_script/kirin_kernel_release/kernel/mm/pagecache_manage.c:0:0
	mov	x1, x0
.Ltmp179:
	//DEBUG_VALUE: pch_do_page_cache_readaround:page <- $x1
	//DEBUG_VALUE: SetPageReadahead:page <- $x1
	.loc	1 588 7 is_stmt 1       // /mnt/disk/jenkins/workspace/release/opensource/component_code/vendor/huawei/extra/build/build_script/kirin_kernel_release/kernel/mm/pagecache_manage.c:588:7
	cbz	x27, .LBB6_11
.Ltmp180:
// %bb.20:                              //   in Loop: Header=BB6_13 Depth=1
	//DEBUG_VALUE: pch_read_around:size <- [DW_OP_plus_uconst 40] [$sp+0]
	//DEBUG_VALUE: pch_do_page_cache_readaround:page <- $x1
	//DEBUG_VALUE: pch_do_page_cache_readaround:pgofs <- $x19
	//DEBUG_VALUE: pch_do_page_cache_readaround:page_idx <- $w25
	//DEBUG_VALUE: pch_do_page_cache_readaround:i <- $x22
	//DEBUG_VALUE: pch_do_page_cache_readaround:ret <- [DW_OP_plus_uconst 80] [$sp+0]
	//DEBUG_VALUE: pch_do_page_cache_readaround:gfp_mask <- [DW_OP_plus_uconst 60] [$sp+0]
	//DEBUG_VALUE: pch_do_page_cache_readaround:offset <- $x23
	//DEBUG_VALUE: pch_do_page_cache_readaround:inode <- [DW_OP_plus_uconst 48] [$sp+0]
	//DEBUG_VALUE: pch_read_around:start <- $x23
	.loc	1 0 7 is_stmt 0         // /mnt/disk/jenkins/workspace/release/opensource/component_code/vendor/huawei/extra/build/build_script/kirin_kernel_release/kernel/mm/pagecache_manage.c:0:7
	lsr	w8, w25, #6
.Ltmp181:
	.loc	1 589 4 is_stmt 1       // /mnt/disk/jenkins/workspace/release/opensource/component_code/vendor/huawei/extra/build/build_script/kirin_kernel_release/kernel/mm/pagecache_manage.c:589:4
	lsl	x8, x8, #3
	sub	x13, x29, #104          // =104
	.loc	1 589 29 is_stmt 0      // /mnt/disk/jenkins/workspace/release/opensource/component_code/vendor/huawei/extra/build/build_script/kirin_kernel_release/kernel/mm/pagecache_manage.c:589:29
	ldr	x9, [x13, x8]
	.loc	1 589 37                // /mnt/disk/jenkins/workspace/release/opensource/component_code/vendor/huawei/extra/build/build_script/kirin_kernel_release/kernel/mm/pagecache_manage.c:589:37
	orr	w10, wzr, #0x1
.Ltmp182:
	.loc	148 79 30 is_stmt 1     // /mnt/disk/jenkins/workspace/release/opensource/component_code/vendor/huawei/extra/build/build_script/kirin_kernel_release/kernel/include/linux/list.h:79:30
	ldr	x11, [sp, #104]
.Ltmp183:
	.loc	1 589 37                // /mnt/disk/jenkins/workspace/release/opensource/component_code/vendor/huawei/extra/build/build_script/kirin_kernel_release/kernel/mm/pagecache_manage.c:589:37
	lsl	x10, x10, x25
	.loc	1 589 29 is_stmt 0      // /mnt/disk/jenkins/workspace/release/opensource/component_code/vendor/huawei/extra/build/build_script/kirin_kernel_release/kernel/mm/pagecache_manage.c:589:29
	orr	x9, x9, x10
	.loc	1 590 20 is_stmt 1      // /mnt/disk/jenkins/workspace/release/opensource/component_code/vendor/huawei/extra/build/build_script/kirin_kernel_release/kernel/mm/pagecache_manage.c:590:20
	add	x12, x1, #32            // =32
	.loc	1 589 29                // /mnt/disk/jenkins/workspace/release/opensource/component_code/vendor/huawei/extra/build/build_script/kirin_kernel_release/kernel/mm/pagecache_manage.c:589:29
	str	x9, [x13, x8]
.Ltmp184:
	//DEBUG_VALUE: list_add:new <- $x12
	//DEBUG_VALUE: __list_add:new <- $x12
	//DEBUG_VALUE: __list_add:next <- $x11
	.loc	148 65 12               // /mnt/disk/jenkins/workspace/release/opensource/component_code/vendor/huawei/extra/build/build_script/kirin_kernel_release/kernel/include/linux/list.h:65:12
	add	x8, sp, #104            // =104
	.loc	148 63 13               // /mnt/disk/jenkins/workspace/release/opensource/component_code/vendor/huawei/extra/build/build_script/kirin_kernel_release/kernel/include/linux/list.h:63:13
	str	x12, [x11, #8]
.Ltmp185:
	//DEBUG_VALUE: __list_add:prev <- [DW_OP_plus_uconst 104] $sp
	//DEBUG_VALUE: list_add:head <- [DW_OP_plus_uconst 104] $sp
	//DEBUG_VALUE: pch_do_page_cache_readaround:page_tmp <- [DW_OP_plus_uconst 104, DW_OP_deref] $sp
	.loc	148 64 12               // /mnt/disk/jenkins/workspace/release/opensource/component_code/vendor/huawei/extra/build/build_script/kirin_kernel_release/kernel/include/linux/list.h:64:12
	stp	x11, x8, [x1, #32]
.Ltmp186:
	//DEBUG_VALUE: __write_once_size:size <- 8
	//DEBUG_VALUE: __write_once_size:res <- undef
	//DEBUG_VALUE: __write_once_size:p <- [DW_OP_plus_uconst 104] $sp
	.loc	145 213 31              // /mnt/disk/jenkins/workspace/release/opensource/component_code/vendor/huawei/extra/build/build_script/kirin_kernel_release/kernel/include/linux/compiler.h:213:31
	str	x12, [sp, #104]
.Ltmp187:
.LBB6_21:                               //   in Loop: Header=BB6_13 Depth=1
	//DEBUG_VALUE: pch_read_around:size <- [DW_OP_plus_uconst 40] [$sp+0]
	//DEBUG_VALUE: pch_do_page_cache_readaround:pgofs <- $x19
	//DEBUG_VALUE: pch_do_page_cache_readaround:page_idx <- $w25
	//DEBUG_VALUE: pch_do_page_cache_readaround:i <- $x22
	//DEBUG_VALUE: pch_do_page_cache_readaround:ret <- [DW_OP_plus_uconst 80] [$sp+0]
	//DEBUG_VALUE: pch_do_page_cache_readaround:gfp_mask <- [DW_OP_plus_uconst 60] [$sp+0]
	//DEBUG_VALUE: pch_do_page_cache_readaround:offset <- $x23
	//DEBUG_VALUE: pch_do_page_cache_readaround:inode <- [DW_OP_plus_uconst 48] [$sp+0]
	//DEBUG_VALUE: pch_read_around:start <- $x23
	.loc	145 0 31 is_stmt 0      // /mnt/disk/jenkins/workspace/release/opensource/component_code/vendor/huawei/extra/build/build_script/kirin_kernel_release/kernel/include/linux/compiler.h:0:31
	ldr	x8, [sp, #80]           // 8-byte Folded Reload
	.loc	1 597 6 is_stmt 1       // /mnt/disk/jenkins/workspace/release/opensource/component_code/vendor/huawei/extra/build/build_script/kirin_kernel_release/kernel/mm/pagecache_manage.c:597:6
	add	w8, w8, #1              // =1
	//DEBUG_VALUE: pch_do_page_cache_readaround:ret <- [DW_OP_plus_uconst 80] [$sp+0]
	str	x8, [sp, #80]           // 8-byte Folded Spill
	b	.LBB6_23
.Ltmp188:
.LBB6_22:                               //   in Loop: Header=BB6_13 Depth=1
	//DEBUG_VALUE: pch_read_around:size <- [DW_OP_plus_uconst 40] [$sp+0]
	//DEBUG_VALUE: pch_do_page_cache_readaround:pgofs <- $x19
	//DEBUG_VALUE: pch_do_page_cache_readaround:page_idx <- $w25
	//DEBUG_VALUE: pch_do_page_cache_readaround:i <- $x22
	//DEBUG_VALUE: pch_do_page_cache_readaround:ret <- [DW_OP_plus_uconst 80] [$sp+0]
	//DEBUG_VALUE: pch_do_page_cache_readaround:gfp_mask <- [DW_OP_plus_uconst 60] [$sp+0]
	//DEBUG_VALUE: pch_do_page_cache_readaround:offset <- $x23
	//DEBUG_VALUE: pch_do_page_cache_readaround:inode <- [DW_OP_plus_uconst 48] [$sp+0]
	//DEBUG_VALUE: pch_read_around:start <- $x23
	//DEBUG_VALUE: pch_do_page_cache_readaround:old_nr_to_read <- $x21
	.loc	1 574 4                 // /mnt/disk/jenkins/workspace/release/opensource/component_code/vendor/huawei/extra/build/build_script/kirin_kernel_release/kernel/mm/pagecache_manage.c:574:4
	orr	w0, wzr, #0x1
	bl	file_map_stat_ignore_inc
.Ltmp189:
.LBB6_23:                               //   in Loop: Header=BB6_13 Depth=1
	//DEBUG_VALUE: pch_read_around:size <- [DW_OP_plus_uconst 40] [$sp+0]
	//DEBUG_VALUE: pch_do_page_cache_readaround:page_idx <- $w25
	//DEBUG_VALUE: pch_do_page_cache_readaround:i <- $x22
	//DEBUG_VALUE: pch_do_page_cache_readaround:ret <- [DW_OP_plus_uconst 80] [$sp+0]
	//DEBUG_VALUE: pch_do_page_cache_readaround:gfp_mask <- [DW_OP_plus_uconst 60] [$sp+0]
	//DEBUG_VALUE: pch_do_page_cache_readaround:offset <- $x23
	//DEBUG_VALUE: pch_do_page_cache_readaround:inode <- [DW_OP_plus_uconst 48] [$sp+0]
	//DEBUG_VALUE: pch_read_around:start <- $x23
	//DEBUG_VALUE: pch_do_page_cache_readaround:ret <- [DW_OP_plus_uconst 80] [$sp+0]
	.loc	1 563 38                // /mnt/disk/jenkins/workspace/release/opensource/component_code/vendor/huawei/extra/build/build_script/kirin_kernel_release/kernel/mm/pagecache_manage.c:563:38
	add	x22, x22, #1            // =1
.Ltmp190:
	//DEBUG_VALUE: pch_do_page_cache_readaround:i <- $x22
	.loc	1 563 2 is_stmt 0       // /mnt/disk/jenkins/workspace/release/opensource/component_code/vendor/huawei/extra/build/build_script/kirin_kernel_release/kernel/mm/pagecache_manage.c:563:2
	cmp	x22, x28
.Ltmp191:
	.loc	1 563 16                // /mnt/disk/jenkins/workspace/release/opensource/component_code/vendor/huawei/extra/build/build_script/kirin_kernel_release/kernel/mm/pagecache_manage.c:563:16
	sub	w24, w24, #1            // =1
.Ltmp192:
	.loc	1 563 2                 // /mnt/disk/jenkins/workspace/release/opensource/component_code/vendor/huawei/extra/build/build_script/kirin_kernel_release/kernel/mm/pagecache_manage.c:563:2
	b.lo	.LBB6_13
.Ltmp193:
.LBB6_24:
	//DEBUG_VALUE: pch_read_around:size <- [DW_OP_plus_uconst 40] [$sp+0]
	//DEBUG_VALUE: pch_do_page_cache_readaround:gfp_mask <- [DW_OP_plus_uconst 60] [$sp+0]
	//DEBUG_VALUE: pch_do_page_cache_readaround:offset <- $x23
	//DEBUG_VALUE: pch_do_page_cache_readaround:inode <- [DW_OP_plus_uconst 48] [$sp+0]
	//DEBUG_VALUE: pch_read_around:start <- $x23
	//DEBUG_VALUE: pch_do_page_cache_readaround:ret <- [DW_OP_plus_uconst 80] [$sp+0]
	.loc	1 0 2                   // /mnt/disk/jenkins/workspace/release/opensource/component_code/vendor/huawei/extra/build/build_script/kirin_kernel_release/kernel/mm/pagecache_manage.c:0:2
	ldr	x19, [sp, #80]          // 8-byte Folded Reload
.Ltmp194:
	//DEBUG_VALUE: pch_do_page_cache_readaround:ret <- $w19
	ldr	w8, [sp, #36]           // 4-byte Folded Reload
	.loc	1 601 6 is_stmt 1       // /mnt/disk/jenkins/workspace/release/opensource/component_code/vendor/huawei/extra/build/build_script/kirin_kernel_release/kernel/mm/pagecache_manage.c:601:6
	tbz	w8, #0, .LBB6_26
.Ltmp195:
// %bb.25:
	//DEBUG_VALUE: pch_read_around:size <- [DW_OP_plus_uconst 40] [$sp+0]
	//DEBUG_VALUE: pch_do_page_cache_readaround:ret <- $w19
	//DEBUG_VALUE: pch_do_page_cache_readaround:gfp_mask <- [DW_OP_plus_uconst 60] [$sp+0]
	//DEBUG_VALUE: pch_do_page_cache_readaround:offset <- $x23
	//DEBUG_VALUE: pch_do_page_cache_readaround:inode <- [DW_OP_plus_uconst 48] [$sp+0]
	//DEBUG_VALUE: pch_read_around:start <- $x23
	.loc	1 602 27                // /mnt/disk/jenkins/workspace/release/opensource/component_code/vendor/huawei/extra/build/build_script/kirin_kernel_release/kernel/mm/pagecache_manage.c:602:27
	sxtw	x0, w19
	.loc	1 602 3 is_stmt 0       // /mnt/disk/jenkins/workspace/release/opensource/component_code/vendor/huawei/extra/build/build_script/kirin_kernel_release/kernel/mm/pagecache_manage.c:602:3
	bl	file_map_stat_total_inc
.Ltmp196:
.LBB6_26:
	//DEBUG_VALUE: pch_read_around:size <- [DW_OP_plus_uconst 40] [$sp+0]
	//DEBUG_VALUE: pch_do_page_cache_readaround:ret <- $w19
	//DEBUG_VALUE: pch_do_page_cache_readaround:gfp_mask <- [DW_OP_plus_uconst 60] [$sp+0]
	//DEBUG_VALUE: pch_do_page_cache_readaround:offset <- $x23
	//DEBUG_VALUE: pch_do_page_cache_readaround:inode <- [DW_OP_plus_uconst 48] [$sp+0]
	//DEBUG_VALUE: pch_read_around:start <- $x23
	.loc	1 0 3                   // /mnt/disk/jenkins/workspace/release/opensource/component_code/vendor/huawei/extra/build/build_script/kirin_kernel_release/kernel/mm/pagecache_manage.c:0:3
	ldp	x1, x24, [sp, #16]      // 16-byte Folded Reload
	ldr	x0, [sp, #8]            // 8-byte Folded Reload
	ldr	x21, [sp, #40]          // 8-byte Folded Reload
	.loc	1 610 6 is_stmt 1       // /mnt/disk/jenkins/workspace/release/opensource/component_code/vendor/huawei/extra/build/build_script/kirin_kernel_release/kernel/mm/pagecache_manage.c:610:6
	cbz	w19, .LBB6_33
.Ltmp197:
// %bb.27:
	//DEBUG_VALUE: pch_read_around:size <- [DW_OP_plus_uconst 40] [$sp+0]
	//DEBUG_VALUE: pch_do_page_cache_readaround:ret <- $w19
	//DEBUG_VALUE: pch_do_page_cache_readaround:gfp_mask <- [DW_OP_plus_uconst 60] [$sp+0]
	//DEBUG_VALUE: pch_do_page_cache_readaround:offset <- $x23
	//DEBUG_VALUE: pch_do_page_cache_readaround:inode <- [DW_OP_plus_uconst 48] [$sp+0]
	//DEBUG_VALUE: pch_read_around:start <- $x23
	.loc	1 615 7                 // /mnt/disk/jenkins/workspace/release/opensource/component_code/vendor/huawei/extra/build/build_script/kirin_kernel_release/kernel/mm/pagecache_manage.c:615:7
	cbz	x27, .LBB6_32
.Ltmp198:
// %bb.28:
	//DEBUG_VALUE: pch_read_around:size <- [DW_OP_plus_uconst 40] [$sp+0]
	//DEBUG_VALUE: pch_do_page_cache_readaround:ret <- $w19
	//DEBUG_VALUE: pch_do_page_cache_readaround:gfp_mask <- [DW_OP_plus_uconst 60] [$sp+0]
	//DEBUG_VALUE: pch_do_page_cache_readaround:offset <- $x23
	//DEBUG_VALUE: pch_do_page_cache_readaround:inode <- [DW_OP_plus_uconst 48] [$sp+0]
	//DEBUG_VALUE: pch_read_around:start <- $x23
	//DEBUG_VALUE: pch_reorder_io_list:bm_count <- 2
	//DEBUG_VALUE: pch_reorder_io_list:i <- 0
	.loc	1 0 7 is_stmt 0         // /mnt/disk/jenkins/workspace/release/opensource/component_code/vendor/huawei/extra/build/build_script/kirin_kernel_release/kernel/mm/pagecache_manage.c:0:7
	mov	x11, #256
	mov	x8, xzr
	sub	x9, x29, #104           // =104
	orr	w10, wzr, #0x1
	movk	x11, #57005, lsl #48
	add	x12, sp, #88            // =88
	add	x13, sp, #104           // =104
.Ltmp199:
.LBB6_29:                               // =>This Inner Loop Header: Depth=1
	//DEBUG_VALUE: pch_read_around:size <- [DW_OP_plus_uconst 40] [$sp+0]
	//DEBUG_VALUE: pch_do_page_cache_readaround:ret <- $w19
	//DEBUG_VALUE: pch_do_page_cache_readaround:gfp_mask <- [DW_OP_plus_uconst 60] [$sp+0]
	//DEBUG_VALUE: pch_do_page_cache_readaround:offset <- $x23
	//DEBUG_VALUE: pch_do_page_cache_readaround:inode <- [DW_OP_plus_uconst 48] [$sp+0]
	//DEBUG_VALUE: pch_read_around:start <- $x23
	//DEBUG_VALUE: pch_reorder_io_list:i <- $x8
	.loc	1 489 10 is_stmt 1      // /mnt/disk/jenkins/workspace/release/opensource/component_code/vendor/huawei/extra/build/build_script/kirin_kernel_release/kernel/mm/pagecache_manage.c:489:10
	asr	w14, w8, #6
.Ltmp200:
	//DEBUG_VALUE: pch_reorder_io_list:pg_idx_bm <- [DW_OP_constu 104, DW_OP_minus] $fp
	.loc	1 492 7                 // /mnt/disk/jenkins/workspace/release/opensource/component_code/vendor/huawei/extra/build/build_script/kirin_kernel_release/kernel/mm/pagecache_manage.c:492:7
	ldr	x14, [x9, w14, sxtw #3]
	.loc	1 492 33 is_stmt 0      // /mnt/disk/jenkins/workspace/release/opensource/component_code/vendor/huawei/extra/build/build_script/kirin_kernel_release/kernel/mm/pagecache_manage.c:492:33
	lsl	x15, x10, x8
	.loc	1 492 25                // /mnt/disk/jenkins/workspace/release/opensource/component_code/vendor/huawei/extra/build/build_script/kirin_kernel_release/kernel/mm/pagecache_manage.c:492:25
	tst	x15, x14
.Ltmp201:
	.loc	1 492 7                 // /mnt/disk/jenkins/workspace/release/opensource/component_code/vendor/huawei/extra/build/build_script/kirin_kernel_release/kernel/mm/pagecache_manage.c:492:7
	b.eq	.LBB6_31
.Ltmp202:
// %bb.30:                              //   in Loop: Header=BB6_29 Depth=1
	//DEBUG_VALUE: pch_read_around:size <- [DW_OP_plus_uconst 40] [$sp+0]
	//DEBUG_VALUE: pch_reorder_io_list:pg_idx_bm <- [DW_OP_constu 104, DW_OP_minus] $fp
	//DEBUG_VALUE: pch_reorder_io_list:i <- $x8
	//DEBUG_VALUE: pch_do_page_cache_readaround:ret <- $w19
	//DEBUG_VALUE: pch_do_page_cache_readaround:gfp_mask <- [DW_OP_plus_uconst 60] [$sp+0]
	//DEBUG_VALUE: pch_do_page_cache_readaround:offset <- $x23
	//DEBUG_VALUE: pch_do_page_cache_readaround:inode <- [DW_OP_plus_uconst 48] [$sp+0]
	//DEBUG_VALUE: pch_read_around:start <- $x23
	.loc	1 493 11 is_stmt 1      // /mnt/disk/jenkins/workspace/release/opensource/component_code/vendor/huawei/extra/build/build_script/kirin_kernel_release/kernel/mm/pagecache_manage.c:493:11
	ldr	x14, [sp, #104]
.Ltmp203:
	//DEBUG_VALUE: __list_del_entry:entry <- $x14
	//DEBUG_VALUE: list_del:entry <- $x14
	//DEBUG_VALUE: pch_reorder_io_list:page <- [DW_OP_constu 32, DW_OP_minus, DW_OP_stack_value] $x14
	//DEBUG_VALUE: __mptr <- $x14
	.loc	1 496 10                // /mnt/disk/jenkins/workspace/release/opensource/component_code/vendor/huawei/extra/build/build_script/kirin_kernel_release/kernel/mm/pagecache_manage.c:496:10
	add	x17, x23, x8
.Ltmp204:
	//DEBUG_VALUE: __list_del:prev <- $x16
	//DEBUG_VALUE: __list_del:next <- $x15
	.loc	148 120 33              // /mnt/disk/jenkins/workspace/release/opensource/component_code/vendor/huawei/extra/build/build_script/kirin_kernel_release/kernel/include/linux/list.h:120:33
	ldp	x15, x16, [x14]
.Ltmp205:
	.loc	148 105 13              // /mnt/disk/jenkins/workspace/release/opensource/component_code/vendor/huawei/extra/build/build_script/kirin_kernel_release/kernel/include/linux/list.h:105:13
	str	x16, [x15, #8]
.Ltmp206:
	//DEBUG_VALUE: __write_once_size:p <- $x16
	//DEBUG_VALUE: __write_once_size:size <- 8
	//DEBUG_VALUE: __write_once_size:res <- undef
	//DEBUG_VALUE: __list_del_entry:entry <- $x14
	//DEBUG_VALUE: list_del:entry <- $x14
	.loc	145 213 31              // /mnt/disk/jenkins/workspace/release/opensource/component_code/vendor/huawei/extra/build/build_script/kirin_kernel_release/kernel/include/linux/compiler.h:213:31
	str	x15, [x16]
.Ltmp207:
	.loc	148 126 14              // /mnt/disk/jenkins/workspace/release/opensource/component_code/vendor/huawei/extra/build/build_script/kirin_kernel_release/kernel/include/linux/list.h:126:14
	str	x11, [x14]
.Ltmp208:
	.loc	1 496 16                // /mnt/disk/jenkins/workspace/release/opensource/component_code/vendor/huawei/extra/build/build_script/kirin_kernel_release/kernel/mm/pagecache_manage.c:496:16
	stur	x17, [x14, #-16]
.Ltmp209:
	//DEBUG_VALUE: list_add:new <- $x14
	.loc	148 79 30               // /mnt/disk/jenkins/workspace/release/opensource/component_code/vendor/huawei/extra/build/build_script/kirin_kernel_release/kernel/include/linux/list.h:79:30
	ldr	x15, [sp, #88]
.Ltmp210:
	//DEBUG_VALUE: __list_add:next <- $x15
	//DEBUG_VALUE: __list_add:new <- $x14
	.loc	148 63 13               // /mnt/disk/jenkins/workspace/release/opensource/component_code/vendor/huawei/extra/build/build_script/kirin_kernel_release/kernel/include/linux/list.h:63:13
	str	x14, [x15, #8]
	.loc	148 64 12               // /mnt/disk/jenkins/workspace/release/opensource/component_code/vendor/huawei/extra/build/build_script/kirin_kernel_release/kernel/include/linux/list.h:64:12
	stp	x15, x12, [x14]
.Ltmp211:
	//DEBUG_VALUE: __list_add:prev <- [DW_OP_plus_uconst 88] $sp
	//DEBUG_VALUE: list_add:head <- [DW_OP_plus_uconst 88] $sp
	//DEBUG_VALUE: pch_reorder_io_list:page_pool <- [DW_OP_plus_uconst 88] $sp
	//DEBUG_VALUE: pch_do_page_cache_readaround:page_pool <- [DW_OP_plus_uconst 88, DW_OP_deref] $sp
	//DEBUG_VALUE: __write_once_size:size <- 8
	//DEBUG_VALUE: __write_once_size:res <- undef
	//DEBUG_VALUE: __write_once_size:p <- [DW_OP_plus_uconst 88] $sp
	.loc	145 213 31              // /mnt/disk/jenkins/workspace/release/opensource/component_code/vendor/huawei/extra/build/build_script/kirin_kernel_release/kernel/include/linux/compiler.h:213:31
	str	x14, [sp, #88]
.Ltmp212:
	//DEBUG_VALUE: __read_once_size:size <- 8
	//DEBUG_VALUE: __read_once_size:res <- undef
	.loc	145 186 2               // /mnt/disk/jenkins/workspace/release/opensource/component_code/vendor/huawei/extra/build/build_script/kirin_kernel_release/kernel/include/linux/compiler.h:186:2
	ldr	x14, [sp, #104]
.Ltmp213:
	//DEBUG_VALUE: __read_once_size:p <- [DW_OP_plus_uconst 104] $sp
	//DEBUG_VALUE: list_empty:head <- [DW_OP_plus_uconst 104] $sp
	//DEBUG_VALUE: pch_reorder_io_list:page_tmp <- [DW_OP_plus_uconst 104] $sp
	//DEBUG_VALUE: pch_do_page_cache_readaround:page_tmp <- [DW_OP_plus_uconst 104, DW_OP_deref] $sp
	.loc	1 498 8                 // /mnt/disk/jenkins/workspace/release/opensource/component_code/vendor/huawei/extra/build/build_script/kirin_kernel_release/kernel/mm/pagecache_manage.c:498:8
	cmp	x13, x14
	b.eq	.LBB6_32
.Ltmp214:
.LBB6_31:                               //   in Loop: Header=BB6_29 Depth=1
	//DEBUG_VALUE: pch_read_around:size <- [DW_OP_plus_uconst 40] [$sp+0]
	//DEBUG_VALUE: pch_reorder_io_list:pg_idx_bm <- [DW_OP_constu 104, DW_OP_minus] $fp
	//DEBUG_VALUE: pch_reorder_io_list:i <- $x8
	//DEBUG_VALUE: pch_do_page_cache_readaround:ret <- $w19
	//DEBUG_VALUE: pch_do_page_cache_readaround:gfp_mask <- [DW_OP_plus_uconst 60] [$sp+0]
	//DEBUG_VALUE: pch_do_page_cache_readaround:offset <- $x23
	//DEBUG_VALUE: pch_do_page_cache_readaround:inode <- [DW_OP_plus_uconst 48] [$sp+0]
	//DEBUG_VALUE: pch_read_around:start <- $x23
	//DEBUG_VALUE: pch_reorder_io_list:i <- [DW_OP_plus_uconst 1, DW_OP_stack_value] undef
	.loc	1 488 46                // /mnt/disk/jenkins/workspace/release/opensource/component_code/vendor/huawei/extra/build/build_script/kirin_kernel_release/kernel/mm/pagecache_manage.c:488:46
	add	x8, x8, #1              // =1
.Ltmp215:
	.loc	1 488 2 is_stmt 0       // /mnt/disk/jenkins/workspace/release/opensource/component_code/vendor/huawei/extra/build/build_script/kirin_kernel_release/kernel/mm/pagecache_manage.c:488:2
	cmp	x8, #128                // =128
	b.lo	.LBB6_29
.Ltmp216:
.LBB6_32:
	//DEBUG_VALUE: pch_read_around:size <- [DW_OP_plus_uconst 40] [$sp+0]
	//DEBUG_VALUE: pch_do_page_cache_readaround:ret <- $w19
	//DEBUG_VALUE: pch_do_page_cache_readaround:gfp_mask <- [DW_OP_plus_uconst 60] [$sp+0]
	//DEBUG_VALUE: pch_do_page_cache_readaround:offset <- $x23
	//DEBUG_VALUE: pch_do_page_cache_readaround:inode <- [DW_OP_plus_uconst 48] [$sp+0]
	//DEBUG_VALUE: pch_read_around:start <- $x23
	//DEBUG_VALUE: pch_do_page_cache_readaround:page_pool <- [DW_OP_plus_uconst 88, DW_OP_deref] $sp
	.loc	1 0 2                   // /mnt/disk/jenkins/workspace/release/opensource/component_code/vendor/huawei/extra/build/build_script/kirin_kernel_release/kernel/mm/pagecache_manage.c:0:2
	ldr	w4, [sp, #60]           // 4-byte Folded Reload
	.loc	1 618 3 is_stmt 1       // /mnt/disk/jenkins/workspace/release/opensource/component_code/vendor/huawei/extra/build/build_script/kirin_kernel_release/kernel/mm/pagecache_manage.c:618:3
	add	x2, sp, #88             // =88
	mov	w3, w19
	bl	read_pages
.Ltmp217:
.LBB6_33:
	//DEBUG_VALUE: pch_read_around:start <- $x23
	.loc	1 646 12                // /mnt/disk/jenkins/workspace/release/opensource/component_code/vendor/huawei/extra/build/build_script/kirin_kernel_release/kernel/mm/pagecache_manage.c:646:12
	str	x23, [x24]
	.loc	1 647 11                // /mnt/disk/jenkins/workspace/release/opensource/component_code/vendor/huawei/extra/build/build_script/kirin_kernel_release/kernel/mm/pagecache_manage.c:647:11
	str	w21, [x24, #8]
	adrp	x9, __stack_chk_guard
	ldur	x8, [x29, #-88]
	ldr	x9, [x9, :lo12:__stack_chk_guard]
	cmp	x9, x8
	b.ne	.LBB6_35
.Ltmp218:
// %bb.34:
	//DEBUG_VALUE: pch_read_around:start <- $x23
	.loc	1 651 1                 // /mnt/disk/jenkins/workspace/release/opensource/component_code/vendor/huawei/extra/build/build_script/kirin_kernel_release/kernel/mm/pagecache_manage.c:651:1
	ldp	x29, x30, [sp, #224]    // 16-byte Folded Reload
	ldp	x20, x19, [sp, #208]    // 16-byte Folded Reload
	ldp	x22, x21, [sp, #192]    // 16-byte Folded Reload
	ldp	x24, x23, [sp, #176]    // 16-byte Folded Reload
.Ltmp219:
	ldp	x26, x25, [sp, #160]    // 16-byte Folded Reload
	ldp	x28, x27, [sp, #144]    // 16-byte Folded Reload
	add	sp, sp, #240            // =240
	ret
.Ltmp220:
.LBB6_35:
	//DEBUG_VALUE: pch_read_around:start <- $x23
	.loc	1 0 1 is_stmt 0         // /mnt/disk/jenkins/workspace/release/opensource/component_code/vendor/huawei/extra/build/build_script/kirin_kernel_release/kernel/mm/pagecache_manage.c:0:1
	bl	__stack_chk_fail
.Lfunc_end6:
	.size	pch_read_around, .Lfunc_end6-pch_read_around
	.cfi_endproc
                                        // -- End function
	.section	.text.pch_mmap_readextend,"ax",@progbits
	.hidden	pch_mmap_readextend     // -- Begin function pch_mmap_readextend
	.globl	pch_mmap_readextend
	.p2align	2
	.type	pch_mmap_readextend,@function
pch_mmap_readextend:                    // @pch_mmap_readextend
.Lfunc_begin7:
	.loc	1 761 0 is_stmt 1       // /mnt/disk/jenkins/workspace/release/opensource/component_code/vendor/huawei/extra/build/build_script/kirin_kernel_release/kernel/mm/pagecache_manage.c:761:0
	.cfi_startproc
// %bb.0:
	str	x25, [sp, #-80]!        // 8-byte Folded Spill
	stp	x24, x23, [sp, #16]     // 16-byte Folded Spill
	stp	x22, x21, [sp, #32]     // 16-byte Folded Spill
	stp	x20, x19, [sp, #48]     // 16-byte Folded Spill
	stp	x29, x30, [sp, #64]     // 16-byte Folded Spill
	add	x29, sp, #64            // =64
	.cfi_def_cfa w29, 16
	.cfi_offset w30, -8
	.cfi_offset w29, -16
	.cfi_offset w19, -24
	.cfi_offset w20, -32
	.cfi_offset w21, -40
	.cfi_offset w22, -48
	.cfi_offset w23, -56
	.cfi_offset w24, -64
	.cfi_offset w25, -80
	//DEBUG_VALUE: pch_mmap_readextend:vma <- $x0
	//DEBUG_VALUE: pch_mmap_readextend:ra <- $x1
	//DEBUG_VALUE: pch_mmap_readextend:file <- $x2
	//DEBUG_VALUE: pch_mmap_readextend:offset <- $x3
.Ltmp221:
	//DEBUG_VALUE: __pch_mmap_readextend:file <- $x2
	//DEBUG_VALUE: __pch_mmap_readextend:vma <- $x0
	//DEBUG_VALUE: __pch_mmap_readextend:ra <- $x1
	//DEBUG_VALUE: __pch_mmap_readextend:offset <- $x3
	.loc	1 763 7 prologue_end    // /mnt/disk/jenkins/workspace/release/opensource/component_code/vendor/huawei/extra/build/build_script/kirin_kernel_release/kernel/mm/pagecache_manage.c:763:7
	adrp	x25, pch_info
	ldr	x8, [x25, :lo12:pch_info]
	.loc	1 763 17 is_stmt 0      // /mnt/disk/jenkins/workspace/release/opensource/component_code/vendor/huawei/extra/build/build_script/kirin_kernel_release/kernel/mm/pagecache_manage.c:763:17
	ldr	w8, [x8, #200]
.Ltmp222:
	.loc	1 763 6                 // /mnt/disk/jenkins/workspace/release/opensource/component_code/vendor/huawei/extra/build/build_script/kirin_kernel_release/kernel/mm/pagecache_manage.c:763:6
	cbz	w8, .LBB7_11
.Ltmp223:
// %bb.1:
	//DEBUG_VALUE: __pch_mmap_readextend:offset <- $x3
	//DEBUG_VALUE: __pch_mmap_readextend:ra <- $x1
	//DEBUG_VALUE: __pch_mmap_readextend:vma <- $x0
	//DEBUG_VALUE: __pch_mmap_readextend:file <- $x2
	//DEBUG_VALUE: pch_mmap_readextend:offset <- $x3
	//DEBUG_VALUE: pch_mmap_readextend:file <- $x2
	//DEBUG_VALUE: pch_mmap_readextend:ra <- $x1
	//DEBUG_VALUE: pch_mmap_readextend:vma <- $x0
	.loc	1 0 6                   // /mnt/disk/jenkins/workspace/release/opensource/component_code/vendor/huawei/extra/build/build_script/kirin_kernel_release/kernel/mm/pagecache_manage.c:0:6
	mov	x20, x3
.Ltmp224:
	//DEBUG_VALUE: pch_mmap_readextend:offset <- $x20
	//DEBUG_VALUE: __pch_mmap_readextend:offset <- $x20
	mov	x19, x2
.Ltmp225:
	//DEBUG_VALUE: pch_mmap_readextend:file <- $x19
	//DEBUG_VALUE: __pch_mmap_readextend:file <- $x19
	mov	x21, x1
.Ltmp226:
	//DEBUG_VALUE: pch_mmap_readextend:ra <- $x21
	//DEBUG_VALUE: __pch_mmap_readextend:ra <- $x21
	mov	x22, x0
.Ltmp227:
	//DEBUG_VALUE: pch_mmap_readextend:vma <- $x22
	//DEBUG_VALUE: __pch_mmap_readextend:vma <- $x22
	//DEBUG_VALUE: pch_lowmem_check:ret <- 0
	.loc	1 266 10 is_stmt 1      // /mnt/disk/jenkins/workspace/release/opensource/component_code/vendor/huawei/extra/build/build_script/kirin_kernel_release/kernel/mm/pagecache_manage.c:266:10
	bl	first_online_pgdat
	.loc	1 268 6                 // /mnt/disk/jenkins/workspace/release/opensource/component_code/vendor/huawei/extra/build/build_script/kirin_kernel_release/kernel/mm/pagecache_manage.c:268:6
	cbz	x0, .LBB7_4
.Ltmp228:
// %bb.2:
	//DEBUG_VALUE: pch_mmap_readextend:vma <- $x22
	//DEBUG_VALUE: pch_mmap_readextend:ra <- $x21
	//DEBUG_VALUE: pch_mmap_readextend:file <- $x19
	//DEBUG_VALUE: pch_mmap_readextend:offset <- $x20
	.loc	1 271 14                // /mnt/disk/jenkins/workspace/release/opensource/component_code/vendor/huawei/extra/build/build_script/kirin_kernel_release/kernel/mm/pagecache_manage.c:271:14
	ldr	x8, [x0, #16]
.Ltmp229:
	.loc	1 272 7                 // /mnt/disk/jenkins/workspace/release/opensource/component_code/vendor/huawei/extra/build/build_script/kirin_kernel_release/kernel/mm/pagecache_manage.c:272:7
	mov	w1, wzr
	mov	w3, wzr
	mov	w4, wzr
.Ltmp230:
	.loc	1 271 37                // /mnt/disk/jenkins/workspace/release/opensource/component_code/vendor/huawei/extra/build/build_script/kirin_kernel_release/kernel/mm/pagecache_manage.c:271:37
	add	x2, x8, #2              // =2
.Ltmp231:
	//DEBUG_VALUE: pch_lowmem_check:watermark <- $x2
	.loc	1 0 0 is_stmt 0         // /mnt/disk/jenkins/workspace/release/opensource/component_code/vendor/huawei/extra/build/build_script/kirin_kernel_release/kernel/mm/pagecache_manage.c:0:0
	mov	x23, x0
.Ltmp232:
	//DEBUG_VALUE: pch_lowmem_check:zone <- $x23
	.loc	1 272 7 is_stmt 1       // /mnt/disk/jenkins/workspace/release/opensource/component_code/vendor/huawei/extra/build/build_script/kirin_kernel_release/kernel/mm/pagecache_manage.c:272:7
	bl	zone_watermark_ok
.Ltmp233:
	.loc	1 275 14                // /mnt/disk/jenkins/workspace/release/opensource/component_code/vendor/huawei/extra/build/build_script/kirin_kernel_release/kernel/mm/pagecache_manage.c:275:14
	ldr	x2, [x23, #8]
.Ltmp234:
	//DEBUG_VALUE: pch_lowmem_check:watermark <- $x2
	.loc	1 272 7                 // /mnt/disk/jenkins/workspace/release/opensource/component_code/vendor/huawei/extra/build/build_script/kirin_kernel_release/kernel/mm/pagecache_manage.c:272:7
	mov	w24, w0
.Ltmp235:
	.loc	1 276 7                 // /mnt/disk/jenkins/workspace/release/opensource/component_code/vendor/huawei/extra/build/build_script/kirin_kernel_release/kernel/mm/pagecache_manage.c:276:7
	mov	x0, x23
	mov	w1, wzr
	mov	w3, wzr
	mov	w4, wzr
	bl	zone_watermark_ok
.Ltmp236:
	.loc	1 0 7 is_stmt 0         // /mnt/disk/jenkins/workspace/release/opensource/component_code/vendor/huawei/extra/build/build_script/kirin_kernel_release/kernel/mm/pagecache_manage.c:0:7
	tbz	w24, #0, .LBB7_11
.Ltmp237:
// %bb.3:
	//DEBUG_VALUE: pch_lowmem_check:zone <- $x23
	//DEBUG_VALUE: pch_mmap_readextend:vma <- $x22
	//DEBUG_VALUE: pch_mmap_readextend:ra <- $x21
	//DEBUG_VALUE: pch_mmap_readextend:file <- $x19
	//DEBUG_VALUE: pch_mmap_readextend:offset <- $x20
	tbz	w0, #0, .LBB7_11
.Ltmp238:
.LBB7_4:
	//DEBUG_VALUE: pch_mmap_readextend:vma <- $x22
	//DEBUG_VALUE: pch_mmap_readextend:ra <- $x21
	//DEBUG_VALUE: pch_mmap_readextend:file <- $x19
	//DEBUG_VALUE: pch_mmap_readextend:offset <- $x20
	//DEBUG_VALUE: __pch_mmap_readextend:forward <- 1
	.loc	1 667 11 is_stmt 1      // /mnt/disk/jenkins/workspace/release/opensource/component_code/vendor/huawei/extra/build/build_script/kirin_kernel_release/kernel/mm/pagecache_manage.c:667:11
	ldr	x8, [x22, #80]
.Ltmp239:
	.loc	1 667 6 is_stmt 0       // /mnt/disk/jenkins/workspace/release/opensource/component_code/vendor/huawei/extra/build/build_script/kirin_kernel_release/kernel/mm/pagecache_manage.c:667:6
	tbnz	w8, #16, .LBB7_11
.Ltmp240:
// %bb.5:
	//DEBUG_VALUE: pch_mmap_readextend:vma <- $x22
	//DEBUG_VALUE: pch_mmap_readextend:ra <- $x21
	//DEBUG_VALUE: pch_mmap_readextend:file <- $x19
	//DEBUG_VALUE: pch_mmap_readextend:offset <- $x20
	.loc	1 669 6 is_stmt 1       // /mnt/disk/jenkins/workspace/release/opensource/component_code/vendor/huawei/extra/build/build_script/kirin_kernel_release/kernel/mm/pagecache_manage.c:669:6
	tbnz	w8, #15, .LBB7_11
.Ltmp241:
// %bb.6:
	//DEBUG_VALUE: pch_mmap_readextend:vma <- $x22
	//DEBUG_VALUE: pch_mmap_readextend:ra <- $x21
	//DEBUG_VALUE: pch_mmap_readextend:file <- $x19
	//DEBUG_VALUE: pch_mmap_readextend:offset <- $x20
	.loc	1 0 0 is_stmt 0         // /mnt/disk/jenkins/workspace/release/opensource/component_code/vendor/huawei/extra/build/build_script/kirin_kernel_release/kernel/mm/pagecache_manage.c:0:0
	ldr	w8, [x21, #16]
	.loc	1 669 6                 // /mnt/disk/jenkins/workspace/release/opensource/component_code/vendor/huawei/extra/build/build_script/kirin_kernel_release/kernel/mm/pagecache_manage.c:669:6
	cbz	w8, .LBB7_11
.Ltmp242:
// %bb.7:
	//DEBUG_VALUE: pch_mmap_readextend:vma <- $x22
	//DEBUG_VALUE: pch_mmap_readextend:ra <- $x21
	//DEBUG_VALUE: pch_mmap_readextend:file <- $x19
	//DEBUG_VALUE: pch_mmap_readextend:offset <- $x20
	.loc	1 678 10 is_stmt 1      // /mnt/disk/jenkins/workspace/release/opensource/component_code/vendor/huawei/extra/build/build_script/kirin_kernel_release/kernel/mm/pagecache_manage.c:678:10
	ldr	w8, [x21, #20]
.Ltmp243:
	.loc	1 678 6 is_stmt 0       // /mnt/disk/jenkins/workspace/release/opensource/component_code/vendor/huawei/extra/build/build_script/kirin_kernel_release/kernel/mm/pagecache_manage.c:678:6
	cmp	w8, #100                // =100
	b.hi	.LBB7_11
.Ltmp244:
// %bb.8:
	//DEBUG_VALUE: pch_mmap_readextend:vma <- $x22
	//DEBUG_VALUE: pch_mmap_readextend:ra <- $x21
	//DEBUG_VALUE: pch_mmap_readextend:file <- $x19
	//DEBUG_VALUE: pch_mmap_readextend:offset <- $x20
	.loc	1 0 0                   // /mnt/disk/jenkins/workspace/release/opensource/component_code/vendor/huawei/extra/build/build_script/kirin_kernel_release/kernel/mm/pagecache_manage.c:0:0
	ldr	x22, [x19, #312]
.Ltmp245:
	//DEBUG_VALUE: __pch_mmap_readextend:mapping <- $x22
	.file	151 "/mnt/disk/jenkins/workspace/release/opensource/component_code/vendor/huawei/extra/build/build_script/kirin_kernel_release/kernel/include/linux/backing-dev.h"
	.loc	151 461 9 is_stmt 1     // /mnt/disk/jenkins/workspace/release/opensource/component_code/vendor/huawei/extra/build/build_script/kirin_kernel_release/kernel/include/linux/backing-dev.h:461:9
	orr	w1, wzr, #0x2
.Ltmp246:
	.loc	1 0 0 is_stmt 0         // /mnt/disk/jenkins/workspace/release/opensource/component_code/vendor/huawei/extra/build/build_script/kirin_kernel_release/kernel/mm/pagecache_manage.c:0:0
	ldr	x0, [x22]
.Ltmp247:
	//DEBUG_VALUE: i_size_read:inode <- $x0
	//DEBUG_VALUE: __pch_mmap_readextend:inode <- $x0
	ldr	x23, [x0, #80]
.Ltmp248:
	//DEBUG_VALUE: __pch_mmap_readextend:isize <- $x23
	//DEBUG_VALUE: inode_read_congested:inode <- $x0
	.loc	151 461 9               // /mnt/disk/jenkins/workspace/release/opensource/component_code/vendor/huawei/extra/build/build_script/kirin_kernel_release/kernel/include/linux/backing-dev.h:461:9
	bl	inode_congested
.Ltmp249:
	.loc	1 684 6 is_stmt 1       // /mnt/disk/jenkins/workspace/release/opensource/component_code/vendor/huawei/extra/build/build_script/kirin_kernel_release/kernel/mm/pagecache_manage.c:684:6
	cbnz	w0, .LBB7_11
.Ltmp250:
// %bb.9:
	//DEBUG_VALUE: __pch_mmap_readextend:isize <- $x23
	//DEBUG_VALUE: __pch_mmap_readextend:mapping <- $x22
	//DEBUG_VALUE: pch_mmap_readextend:ra <- $x21
	//DEBUG_VALUE: pch_mmap_readextend:file <- $x19
	//DEBUG_VALUE: pch_mmap_readextend:offset <- $x20
	.loc	1 732 15                // /mnt/disk/jenkins/workspace/release/opensource/component_code/vendor/huawei/extra/build/build_script/kirin_kernel_release/kernel/mm/pagecache_manage.c:732:15
	ldr	w8, [x21, #8]
.Ltmp251:
	.loc	1 0 0 is_stmt 0         // /mnt/disk/jenkins/workspace/release/opensource/component_code/vendor/huawei/extra/build/build_script/kirin_kernel_release/kernel/mm/pagecache_manage.c:0:0
	sub	x9, x23, #1             // =1
	asr	x9, x9, #12
.Ltmp252:
	//DEBUG_VALUE: __pch_mmap_readextend:end_index <- $x9
	//DEBUG_VALUE: __UNIQUE_ID_min1_64 <- $x9
	.loc	1 732 15                // /mnt/disk/jenkins/workspace/release/opensource/component_code/vendor/huawei/extra/build/build_script/kirin_kernel_release/kernel/mm/pagecache_manage.c:732:15
	add	x2, x20, x8, lsr #1
.Ltmp253:
	//DEBUG_VALUE: __UNIQUE_ID_min2_65 <- $x2
	//DEBUG_VALUE: __pch_mmap_readextend:pch_index <- $x2
	.loc	1 733 7 is_stmt 1       // /mnt/disk/jenkins/workspace/release/opensource/component_code/vendor/huawei/extra/build/build_script/kirin_kernel_release/kernel/mm/pagecache_manage.c:733:7
	cmp	x9, x2
	b.le	.LBB7_11
.Ltmp254:
// %bb.10:
	//DEBUG_VALUE: __pch_mmap_readextend:pch_index <- $x2
	//DEBUG_VALUE: __pch_mmap_readextend:end_index <- $x9
	//DEBUG_VALUE: __pch_mmap_readextend:isize <- $x23
	//DEBUG_VALUE: __pch_mmap_readextend:mapping <- $x22
	//DEBUG_VALUE: pch_mmap_readextend:ra <- $x21
	//DEBUG_VALUE: pch_mmap_readextend:file <- $x19
	//DEBUG_VALUE: pch_mmap_readextend:offset <- $x20
	.loc	1 742 5                 // /mnt/disk/jenkins/workspace/release/opensource/component_code/vendor/huawei/extra/build/build_script/kirin_kernel_release/kernel/mm/pagecache_manage.c:742:5
	ldr	x8, [x25, :lo12:pch_info]
	.loc	1 741 3                 // /mnt/disk/jenkins/workspace/release/opensource/component_code/vendor/huawei/extra/build/build_script/kirin_kernel_release/kernel/mm/pagecache_manage.c:741:3
	mov	x0, x22
	mov	x1, x19
	mov	x4, xzr
	.loc	1 742 15                // /mnt/disk/jenkins/workspace/release/opensource/component_code/vendor/huawei/extra/build/build_script/kirin_kernel_release/kernel/mm/pagecache_manage.c:742:15
	ldr	w3, [x8, #208]
	.loc	1 741 3                 // /mnt/disk/jenkins/workspace/release/opensource/component_code/vendor/huawei/extra/build/build_script/kirin_kernel_release/kernel/mm/pagecache_manage.c:741:3
	bl	__do_page_cache_readahead
.Ltmp255:
.LBB7_11:
	.loc	1 773 1                 // /mnt/disk/jenkins/workspace/release/opensource/component_code/vendor/huawei/extra/build/build_script/kirin_kernel_release/kernel/mm/pagecache_manage.c:773:1
	ldp	x29, x30, [sp, #64]     // 16-byte Folded Reload
	ldp	x20, x19, [sp, #48]     // 16-byte Folded Reload
	ldp	x22, x21, [sp, #32]     // 16-byte Folded Reload
	ldp	x24, x23, [sp, #16]     // 16-byte Folded Reload
	ldr	x25, [sp], #80          // 8-byte Folded Reload
	ret
.Ltmp256:
.Lfunc_end7:
	.size	pch_mmap_readextend, .Lfunc_end7-pch_mmap_readextend
	.cfi_endproc
                                        // -- End function
	.section	.text.pch_timeout_work,"ax",@progbits
	.hidden	pch_timeout_work        // -- Begin function pch_timeout_work
	.globl	pch_timeout_work
	.p2align	2
	.type	pch_timeout_work,@function
pch_timeout_work:                       // @pch_timeout_work
.Lfunc_begin8:
	.loc	1 826 0                 // /mnt/disk/jenkins/workspace/release/opensource/component_code/vendor/huawei/extra/build/build_script/kirin_kernel_release/kernel/mm/pagecache_manage.c:826:0
	.cfi_startproc
// %bb.0:
	sub	sp, sp, #192            // =192
	str	x21, [sp, #144]         // 8-byte Folded Spill
	stp	x20, x19, [sp, #160]    // 16-byte Folded Spill
	stp	x29, x30, [sp, #176]    // 16-byte Folded Spill
	add	x29, sp, #176           // =176
	.cfi_def_cfa w29, 16
	.cfi_offset w30, -8
	.cfi_offset w29, -16
	.cfi_offset w19, -24
	.cfi_offset w20, -32
	.cfi_offset w21, -48
	//DEBUG_VALUE: pch_timeout_work:work <- $x0
	adrp	x8, __stack_chk_guard
	ldr	x8, [x8, :lo12:__stack_chk_guard]
.Ltmp257:
	.loc	1 835 8 prologue_end    // /mnt/disk/jenkins/workspace/release/opensource/component_code/vendor/huawei/extra/build/build_script/kirin_kernel_release/kernel/mm/pagecache_manage.c:835:8
	adrp	x20, pch_info
	stur	x8, [x29, #-40]
	ldr	x8, [x20, :lo12:pch_info]
	.loc	1 835 18 is_stmt 0      // /mnt/disk/jenkins/workspace/release/opensource/component_code/vendor/huawei/extra/build/build_script/kirin_kernel_release/kernel/mm/pagecache_manage.c:835:18
	add	x0, x8, #144            // =144
.Ltmp258:
	.loc	1 835 2                 // /mnt/disk/jenkins/workspace/release/opensource/component_code/vendor/huawei/extra/build/build_script/kirin_kernel_release/kernel/mm/pagecache_manage.c:835:2
	bl	down
	.loc	1 836 33 is_stmt 1      // /mnt/disk/jenkins/workspace/release/opensource/component_code/vendor/huawei/extra/build/build_script/kirin_kernel_release/kernel/mm/pagecache_manage.c:836:33
	ldr	x8, [x20, :lo12:pch_info]
	.loc	1 836 2 is_stmt 0       // /mnt/disk/jenkins/workspace/release/opensource/component_code/vendor/huawei/extra/build/build_script/kirin_kernel_release/kernel/mm/pagecache_manage.c:836:2
	orr	w0, wzr, #0x1
	.loc	1 836 43                // /mnt/disk/jenkins/workspace/release/opensource/component_code/vendor/huawei/extra/build/build_script/kirin_kernel_release/kernel/mm/pagecache_manage.c:836:43
	add	x1, x8, #192            // =192
	.loc	1 836 2                 // /mnt/disk/jenkins/workspace/release/opensource/component_code/vendor/huawei/extra/build/build_script/kirin_kernel_release/kernel/mm/pagecache_manage.c:836:2
	bl	set_bit
.Ltmp259:
	.loc	1 119 10 is_stmt 1      // /mnt/disk/jenkins/workspace/release/opensource/component_code/vendor/huawei/extra/build/build_script/kirin_kernel_release/kernel/mm/pagecache_manage.c:119:10
	ldr	x8, [x20, :lo12:pch_info]
.Ltmp260:
	.loc	1 838 6                 // /mnt/disk/jenkins/workspace/release/opensource/component_code/vendor/huawei/extra/build/build_script/kirin_kernel_release/kernel/mm/pagecache_manage.c:838:6
	ldrb	w9, [x8, #228]
	tbz	w9, #0, .LBB8_17
// %bb.1:
	.loc	1 844 17                // /mnt/disk/jenkins/workspace/release/opensource/component_code/vendor/huawei/extra/build/build_script/kirin_kernel_release/kernel/mm/pagecache_manage.c:844:17
	ldr	x8, [x8, #56]
.Ltmp261:
	.loc	1 806 10                // /mnt/disk/jenkins/workspace/release/opensource/component_code/vendor/huawei/extra/build/build_script/kirin_kernel_release/kernel/mm/pagecache_manage.c:806:10
	adrp	x0, .L.str.19
	add	x0, x0, :lo12:.L.str.19
.Ltmp262:
	//DEBUG_VALUE: pch_user_statfs:path <- [DW_OP_deref] $sp
	mov	w1, #5
.Ltmp263:
	.loc	1 844 23                // /mnt/disk/jenkins/workspace/release/opensource/component_code/vendor/huawei/extra/build/build_script/kirin_kernel_release/kernel/mm/pagecache_manage.c:844:23
	ldr	x8, [x8, #16]
.Ltmp264:
	//DEBUG_VALUE: pch_timeout_work:sb <- $x8
	.loc	1 806 10                // /mnt/disk/jenkins/workspace/release/opensource/component_code/vendor/huawei/extra/build/build_script/kirin_kernel_release/kernel/mm/pagecache_manage.c:806:10
	mov	x2, sp
.Ltmp265:
	.loc	1 845 12                // /mnt/disk/jenkins/workspace/release/opensource/component_code/vendor/huawei/extra/build/build_script/kirin_kernel_release/kernel/mm/pagecache_manage.c:845:12
	ldr	x21, [x8, #248]
.Ltmp266:
	//DEBUG_VALUE: pch_user_statfs:lookup_flags <- 5
	//DEBUG_VALUE: pch_timeout_work:bdi <- $x21
	.loc	1 804 2                 // /mnt/disk/jenkins/workspace/release/opensource/component_code/vendor/huawei/extra/build/build_script/kirin_kernel_release/kernel/mm/pagecache_manage.c:804:2
	stp	xzr, xzr, [sp, #120]
	stp	xzr, xzr, [sp, #104]
	stp	xzr, xzr, [sp, #88]
	stp	xzr, xzr, [sp, #72]
	stp	xzr, xzr, [sp, #56]
	stp	xzr, xzr, [sp, #40]
	stp	xzr, xzr, [sp, #24]
	str	xzr, [sp, #16]
	.loc	1 806 10                // /mnt/disk/jenkins/workspace/release/opensource/component_code/vendor/huawei/extra/build/build_script/kirin_kernel_release/kernel/mm/pagecache_manage.c:806:10
	bl	kern_path
.Ltmp267:
	mov	w19, w0
.Ltmp268:
	//DEBUG_VALUE: pch_user_statfs:error <- $w19
	.loc	1 807 6                 // /mnt/disk/jenkins/workspace/release/opensource/component_code/vendor/huawei/extra/build/build_script/kirin_kernel_release/kernel/mm/pagecache_manage.c:807:6
	cbnz	w0, .LBB8_3
.Ltmp269:
// %bb.2:
	//DEBUG_VALUE: pch_user_statfs:error <- $w19
	//DEBUG_VALUE: pch_timeout_work:bdi <- $x21
	//DEBUG_VALUE: pch_user_statfs:path <- [DW_OP_deref] $sp
	//DEBUG_VALUE: pch_user_statfs:st <- [DW_OP_plus_uconst 16, DW_OP_deref] $sp
	//DEBUG_VALUE: pch_user_statfs:path <- [DW_OP_deref] $sp
	.loc	1 808 11                // /mnt/disk/jenkins/workspace/release/opensource/component_code/vendor/huawei/extra/build/build_script/kirin_kernel_release/kernel/mm/pagecache_manage.c:808:11
	mov	x0, sp
	add	x1, sp, #16             // =16
	bl	vfs_statfs
	mov	w19, w0
.Ltmp270:
	//DEBUG_VALUE: pch_user_statfs:error <- $w19
	.loc	1 809 3                 // /mnt/disk/jenkins/workspace/release/opensource/component_code/vendor/huawei/extra/build/build_script/kirin_kernel_release/kernel/mm/pagecache_manage.c:809:3
	mov	x0, sp
	bl	path_put
.Ltmp271:
	.loc	1 812 7                 // /mnt/disk/jenkins/workspace/release/opensource/component_code/vendor/huawei/extra/build/build_script/kirin_kernel_release/kernel/mm/pagecache_manage.c:812:7
	cbz	w19, .LBB8_7
.Ltmp272:
.LBB8_3:
	//DEBUG_VALUE: pch_timeout_work:bdi <- $x21
	//DEBUG_VALUE: pch_timeout_work:userdata_state <- $w19
	.loc	1 849 6                 // /mnt/disk/jenkins/workspace/release/opensource/component_code/vendor/huawei/extra/build/build_script/kirin_kernel_release/kernel/mm/pagecache_manage.c:849:6
	cbz	w19, .LBB8_8
.Ltmp273:
.LBB8_4:
	//DEBUG_VALUE: pch_timeout_work:userdata_state <- $w19
	//DEBUG_VALUE: pch_timeout_work:bdi <- $x21
	cmp	w19, #1                 // =1
	b.ne	.LBB8_6
.Ltmp274:
// %bb.5:
	//DEBUG_VALUE: pch_timeout_work:userdata_state <- $w19
	//DEBUG_VALUE: pch_timeout_work:bdi <- $x21
	.loc	1 850 3                 // /mnt/disk/jenkins/workspace/release/opensource/component_code/vendor/huawei/extra/build/build_script/kirin_kernel_release/kernel/mm/pagecache_manage.c:850:3
	ldr	x8, [x20, :lo12:pch_info]
	mov	x9, #17179869188
	orr	w10, wzr, #0x10
	.loc	1 850 32 is_stmt 0      // /mnt/disk/jenkins/workspace/release/opensource/component_code/vendor/huawei/extra/build/build_script/kirin_kernel_release/kernel/mm/pagecache_manage.c:850:32
	str	x9, [x8, #208]
	.loc	1 852 32 is_stmt 1      // /mnt/disk/jenkins/workspace/release/opensource/component_code/vendor/huawei/extra/build/build_script/kirin_kernel_release/kernel/mm/pagecache_manage.c:852:32
	str	w10, [x8, #216]
	b	.LBB8_13
.Ltmp275:
.LBB8_6:
	//DEBUG_VALUE: pch_timeout_work:userdata_state <- $w19
	//DEBUG_VALUE: pch_timeout_work:bdi <- $x21
	.loc	1 863 3                 // /mnt/disk/jenkins/workspace/release/opensource/component_code/vendor/huawei/extra/build/build_script/kirin_kernel_release/kernel/mm/pagecache_manage.c:863:3
	adrp	x0, .L.str.1
	adrp	x1, .L__func__.pch_timeout_work
	add	x0, x0, :lo12:.L.str.1
	add	x1, x1, :lo12:.L__func__.pch_timeout_work
	mov	w2, w19
	bl	printk
	b	.LBB8_13
.Ltmp276:
.LBB8_7:
	//DEBUG_VALUE: pch_user_statfs:st <- [DW_OP_plus_uconst 16, DW_OP_deref] $sp
	//DEBUG_VALUE: pch_user_statfs:error <- $w19
	//DEBUG_VALUE: pch_timeout_work:bdi <- $x21
	//DEBUG_VALUE: pch_user_statfs:path <- [DW_OP_deref] $sp
	.loc	1 816 17                // /mnt/disk/jenkins/workspace/release/opensource/component_code/vendor/huawei/extra/build/build_script/kirin_kernel_release/kernel/mm/pagecache_manage.c:816:17
	ldr	x8, [x20, :lo12:pch_info]
.Ltmp277:
	.loc	1 815 21                // /mnt/disk/jenkins/workspace/release/opensource/component_code/vendor/huawei/extra/build/build_script/kirin_kernel_release/kernel/mm/pagecache_manage.c:815:21
	ldr	x9, [sp, #48]
	.loc	1 815 47 is_stmt 0      // /mnt/disk/jenkins/workspace/release/opensource/component_code/vendor/huawei/extra/build/build_script/kirin_kernel_release/kernel/mm/pagecache_manage.c:815:47
	ldr	x10, [sp, #32]
	mov	w11, #100
.Ltmp278:
	.loc	1 816 27 is_stmt 1      // /mnt/disk/jenkins/workspace/release/opensource/component_code/vendor/huawei/extra/build/build_script/kirin_kernel_release/kernel/mm/pagecache_manage.c:816:27
	ldr	w8, [x8, #224]
.Ltmp279:
	.loc	1 815 30                // /mnt/disk/jenkins/workspace/release/opensource/component_code/vendor/huawei/extra/build/build_script/kirin_kernel_release/kernel/mm/pagecache_manage.c:815:30
	mul	x11, x9, x11
	.loc	1 815 42 is_stmt 0      // /mnt/disk/jenkins/workspace/release/opensource/component_code/vendor/huawei/extra/build/build_script/kirin_kernel_release/kernel/mm/pagecache_manage.c:815:42
	udiv	x10, x11, x10
.Ltmp280:
	//DEBUG_VALUE: pch_user_statfs:ratio <- $w10
	.loc	1 816 14 is_stmt 1      // /mnt/disk/jenkins/workspace/release/opensource/component_code/vendor/huawei/extra/build/build_script/kirin_kernel_release/kernel/mm/pagecache_manage.c:816:14
	cmp	w8, w10
	cset	w8, hs
	.loc	1 817 17                // /mnt/disk/jenkins/workspace/release/opensource/component_code/vendor/huawei/extra/build/build_script/kirin_kernel_release/kernel/mm/pagecache_manage.c:817:17
	cmp	x9, #64, lsl #12        // =262144
	cset	w9, ls
	.loc	1 816 45                // /mnt/disk/jenkins/workspace/release/opensource/component_code/vendor/huawei/extra/build/build_script/kirin_kernel_release/kernel/mm/pagecache_manage.c:816:45
	and	w19, w9, w8
.Ltmp281:
	//DEBUG_VALUE: pch_timeout_work:userdata_state <- $w19
	.loc	1 849 6                 // /mnt/disk/jenkins/workspace/release/opensource/component_code/vendor/huawei/extra/build/build_script/kirin_kernel_release/kernel/mm/pagecache_manage.c:849:6
	cbnz	w19, .LBB8_4
.Ltmp282:
.LBB8_8:
	//DEBUG_VALUE: pch_timeout_work:userdata_state <- $w19
	//DEBUG_VALUE: pch_timeout_work:bdi <- $x21
	.loc	1 854 3                 // /mnt/disk/jenkins/workspace/release/opensource/component_code/vendor/huawei/extra/build/build_script/kirin_kernel_release/kernel/mm/pagecache_manage.c:854:3
	ldr	x8, [x20, :lo12:pch_info]
	orr	w10, wzr, #0x10
.Ltmp283:
	.loc	1 855 17                // /mnt/disk/jenkins/workspace/release/opensource/component_code/vendor/huawei/extra/build/build_script/kirin_kernel_release/kernel/mm/pagecache_manage.c:855:17
	ldr	w9, [x8, #204]
.Ltmp284:
	.loc	1 854 32                // /mnt/disk/jenkins/workspace/release/opensource/component_code/vendor/huawei/extra/build/build_script/kirin_kernel_release/kernel/mm/pagecache_manage.c:854:32
	str	w10, [x8, #216]
	.loc	1 855 7                 // /mnt/disk/jenkins/workspace/release/opensource/component_code/vendor/huawei/extra/build/build_script/kirin_kernel_release/kernel/mm/pagecache_manage.c:855:7
	cmp	w9, #1                  // =1
	b.eq	.LBB8_11
.Ltmp285:
// %bb.9:
	//DEBUG_VALUE: pch_timeout_work:userdata_state <- $w19
	//DEBUG_VALUE: pch_timeout_work:bdi <- $x21
	cbnz	w9, .LBB8_13
.Ltmp286:
// %bb.10:
	//DEBUG_VALUE: pch_timeout_work:userdata_state <- $w19
	//DEBUG_VALUE: pch_timeout_work:bdi <- $x21
	.loc	1 0 7 is_stmt 0         // /mnt/disk/jenkins/workspace/release/opensource/component_code/vendor/huawei/extra/build/build_script/kirin_kernel_release/kernel/mm/pagecache_manage.c:0:7
	mov	x9, #34359738376
	b	.LBB8_12
.Ltmp287:
.LBB8_11:
	//DEBUG_VALUE: pch_timeout_work:userdata_state <- $w19
	//DEBUG_VALUE: pch_timeout_work:bdi <- $x21
	mov	x9, #68719476752
.Ltmp288:
.LBB8_12:
	//DEBUG_VALUE: pch_timeout_work:userdata_state <- $w19
	//DEBUG_VALUE: pch_timeout_work:bdi <- $x21
	str	x9, [x8, #208]
.Ltmp289:
.LBB8_13:
	//DEBUG_VALUE: pch_timeout_work:userdata_state <- $w19
	//DEBUG_VALUE: pch_timeout_work:bdi <- $x21
	//DEBUG_VALUE: pch_timeout_work:dirty_thresh <- [DW_OP_deref] $sp
	//DEBUG_VALUE: pch_timeout_work:background_thresh <- [DW_OP_plus_uconst 16, DW_OP_deref] $sp
	.loc	1 866 2 is_stmt 1       // /mnt/disk/jenkins/workspace/release/opensource/component_code/vendor/huawei/extra/build/build_script/kirin_kernel_release/kernel/mm/pagecache_manage.c:866:2
	add	x0, sp, #16             // =16
	mov	x1, sp
	bl	global_dirty_limits
.Ltmp290:
	//DEBUG_VALUE: __read_once_size:size <- 8
	//DEBUG_VALUE: __read_once_size:res <- undef
	//DEBUG_VALUE: global_node_page_state:item <- 16
	.loc	145 186 2               // /mnt/disk/jenkins/workspace/release/opensource/component_code/vendor/huawei/extra/build/build_script/kirin_kernel_release/kernel/include/linux/compiler.h:186:2
	adrp	x8, vm_node_stat+128
	add	x8, x8, :lo12:vm_node_stat+128
.Ltmp291:
	//DEBUG_VALUE: __read_once_size:p <- $x8
	ldr	x9, [x8]
.Ltmp292:
	//DEBUG_VALUE: global_node_page_state:x <- $x9
	.loc	145 186 2 is_stmt 0     // /mnt/disk/jenkins/workspace/release/opensource/component_code/vendor/huawei/extra/build/build_script/kirin_kernel_release/kernel/include/linux/compiler.h:186:2
	ldr	x10, [x8, #56]
.Ltmp293:
	//DEBUG_VALUE: __read_once_size:p <- [DW_OP_plus_uconst 56, DW_OP_stack_value] $x8
	//DEBUG_VALUE: global_node_page_state:x <- $x10
	.loc	145 186 2               // /mnt/disk/jenkins/workspace/release/opensource/component_code/vendor/huawei/extra/build/build_script/kirin_kernel_release/kernel/include/linux/compiler.h:186:2
	ldr	x8, [x8, #8]
.Ltmp294:
	//DEBUG_VALUE: __read_once_size:p <- [DW_OP_plus_uconst 8, DW_OP_stack_value] undef
	//DEBUG_VALUE: global_node_page_state:x <- $x8
	.loc	1 872 17 is_stmt 1      // /mnt/disk/jenkins/workspace/release/opensource/component_code/vendor/huawei/extra/build/build_script/kirin_kernel_release/kernel/mm/pagecache_manage.c:872:17
	ldr	x11, [sp]
.Ltmp295:
	//DEBUG_VALUE: pch_timeout_work:dirty_thresh <- $x11
	.loc	146 170 6               // /mnt/disk/jenkins/workspace/release/opensource/component_code/vendor/huawei/extra/build/build_script/kirin_kernel_release/kernel/include/linux/vmstat.h:170:6
	bic	x9, x9, x9, asr #63
.Ltmp296:
	//DEBUG_VALUE: __read_once_size:size <- 8
	//DEBUG_VALUE: __read_once_size:res <- undef
	//DEBUG_VALUE: global_node_page_state:item <- 23
	//DEBUG_VALUE: global_node_page_state:x <- $x9
	//DEBUG_VALUE: global_node_page_state:x <- $x9
	//DEBUG_VALUE: global_node_page_state:item <- 16
	.loc	146 170 6 is_stmt 0     // /mnt/disk/jenkins/workspace/release/opensource/component_code/vendor/huawei/extra/build/build_script/kirin_kernel_release/kernel/include/linux/vmstat.h:170:6
	bic	x10, x10, x10, asr #63
.Ltmp297:
	//DEBUG_VALUE: global_node_page_state:x <- $x10
	//DEBUG_VALUE: global_node_page_state:x <- $x10
	.loc	1 868 51 is_stmt 1      // /mnt/disk/jenkins/workspace/release/opensource/component_code/vendor/huawei/extra/build/build_script/kirin_kernel_release/kernel/mm/pagecache_manage.c:868:51
	add	x9, x10, x9
.Ltmp298:
	//DEBUG_VALUE: __read_once_size:size <- 8
	//DEBUG_VALUE: __read_once_size:res <- undef
	//DEBUG_VALUE: global_node_page_state:item <- 17
	.loc	146 170 6               // /mnt/disk/jenkins/workspace/release/opensource/component_code/vendor/huawei/extra/build/build_script/kirin_kernel_release/kernel/include/linux/vmstat.h:170:6
	bic	x8, x8, x8, asr #63
.Ltmp299:
	//DEBUG_VALUE: global_node_page_state:x <- $x8
	//DEBUG_VALUE: global_node_page_state:x <- $x8
	.loc	1 869 45                // /mnt/disk/jenkins/workspace/release/opensource/component_code/vendor/huawei/extra/build/build_script/kirin_kernel_release/kernel/mm/pagecache_manage.c:869:45
	add	x8, x9, x8
.Ltmp300:
	//DEBUG_VALUE: pch_timeout_work:nr_dirty <- $x8
	.loc	1 872 6                 // /mnt/disk/jenkins/workspace/release/opensource/component_code/vendor/huawei/extra/build/build_script/kirin_kernel_release/kernel/mm/pagecache_manage.c:872:6
	cmp	x8, x11
	b.lo	.LBB8_16
.Ltmp301:
// %bb.14:
	//DEBUG_VALUE: pch_timeout_work:nr_dirty <- $x8
	//DEBUG_VALUE: pch_timeout_work:dirty_thresh <- $x11
	//DEBUG_VALUE: pch_timeout_work:background_thresh <- [DW_OP_plus_uconst 16, DW_OP_deref] $sp
	//DEBUG_VALUE: pch_timeout_work:userdata_state <- $w19
	//DEBUG_VALUE: pch_timeout_work:bdi <- $x21
	.loc	1 0 0 is_stmt 0         // /mnt/disk/jenkins/workspace/release/opensource/component_code/vendor/huawei/extra/build/build_script/kirin_kernel_release/kernel/mm/pagecache_manage.c:0:0
	add	x0, x21, #88            // =88
.Ltmp302:
	//DEBUG_VALUE: pch_timeout_work:wb <- $x0
	//DEBUG_VALUE: writeback_in_progress:wb <- $x0
	.loc	1 878 6 is_stmt 1       // /mnt/disk/jenkins/workspace/release/opensource/component_code/vendor/huawei/extra/build/build_script/kirin_kernel_release/kernel/mm/pagecache_manage.c:878:6
	cbz	x0, .LBB8_16
.Ltmp303:
// %bb.15:
	//DEBUG_VALUE: writeback_in_progress:wb <- $x0
	//DEBUG_VALUE: pch_timeout_work:wb <- $x0
	//DEBUG_VALUE: pch_timeout_work:nr_dirty <- $x8
	//DEBUG_VALUE: pch_timeout_work:dirty_thresh <- $x11
	//DEBUG_VALUE: pch_timeout_work:background_thresh <- [DW_OP_plus_uconst 16, DW_OP_deref] $sp
	//DEBUG_VALUE: pch_timeout_work:userdata_state <- $w19
	//DEBUG_VALUE: pch_timeout_work:bdi <- $x21
	//DEBUG_VALUE: test_bit:nr <- 1
	//DEBUG_VALUE: test_bit:addr <- [DW_OP_plus_uconst 96, DW_OP_stack_value] $x21
	.file	152 "/mnt/disk/jenkins/workspace/release/opensource/component_code/vendor/huawei/extra/build/build_script/kirin_kernel_release/kernel/include/asm-generic/bitops/non-atomic.h"
	.loc	152 106 16              // /mnt/disk/jenkins/workspace/release/opensource/component_code/vendor/huawei/extra/build/build_script/kirin_kernel_release/kernel/include/asm-generic/bitops/non-atomic.h:106:16
	ldr	x8, [x21, #96]
.Ltmp304:
	.loc	1 884 6                 // /mnt/disk/jenkins/workspace/release/opensource/component_code/vendor/huawei/extra/build/build_script/kirin_kernel_release/kernel/mm/pagecache_manage.c:884:6
	tbz	w8, #1, .LBB8_19
.Ltmp305:
.LBB8_16:
	//DEBUG_VALUE: pch_timeout_work:background_thresh <- [DW_OP_plus_uconst 16, DW_OP_deref] $sp
	//DEBUG_VALUE: pch_timeout_work:userdata_state <- $w19
	//DEBUG_VALUE: pch_timeout_work:bdi <- $x21
	.loc	1 0 0 is_stmt 0         // /mnt/disk/jenkins/workspace/release/opensource/component_code/vendor/huawei/extra/build/build_script/kirin_kernel_release/kernel/mm/pagecache_manage.c:0:0
	ldr	x8, [x20, :lo12:pch_info]
.Ltmp306:
.LBB8_17:
	add	x1, x8, #192            // =192
	orr	w0, wzr, #0x1
	bl	clear_bit
	ldr	x8, [x20, :lo12:pch_info]
	add	x0, x8, #144            // =144
	bl	up
	adrp	x9, __stack_chk_guard
	ldur	x8, [x29, #-40]
	ldr	x9, [x9, :lo12:__stack_chk_guard]
	cmp	x9, x8
	b.ne	.LBB8_20
// %bb.18:
	.loc	1 889 1 is_stmt 1       // /mnt/disk/jenkins/workspace/release/opensource/component_code/vendor/huawei/extra/build/build_script/kirin_kernel_release/kernel/mm/pagecache_manage.c:889:1
	ldp	x29, x30, [sp, #176]    // 16-byte Folded Reload
	ldp	x20, x19, [sp, #160]    // 16-byte Folded Reload
	ldr	x21, [sp, #144]         // 8-byte Folded Reload
	add	sp, sp, #192            // =192
	ret
.LBB8_19:
.Ltmp307:
	//DEBUG_VALUE: pch_timeout_work:wb <- $x0
	//DEBUG_VALUE: pch_timeout_work:dirty_thresh <- $x11
	//DEBUG_VALUE: pch_timeout_work:background_thresh <- [DW_OP_plus_uconst 16, DW_OP_deref] $sp
	//DEBUG_VALUE: pch_timeout_work:userdata_state <- $w19
	//DEBUG_VALUE: pch_timeout_work:bdi <- $x21
	.loc	1 885 3                 // /mnt/disk/jenkins/workspace/release/opensource/component_code/vendor/huawei/extra/build/build_script/kirin_kernel_release/kernel/mm/pagecache_manage.c:885:3
	bl	wb_start_background_writeback
.Ltmp308:
	.loc	1 0 3 is_stmt 0         // /mnt/disk/jenkins/workspace/release/opensource/component_code/vendor/huawei/extra/build/build_script/kirin_kernel_release/kernel/mm/pagecache_manage.c:0:3
	b	.LBB8_16
.Ltmp309:
.LBB8_20:
	bl	__stack_chk_fail
.Lfunc_end8:
	.size	pch_timeout_work, .Lfunc_end8-pch_timeout_work
	.cfi_endproc
                                        // -- End function
	.section	.text.pch_timeout_timer,"ax",@progbits
	.hidden	pch_timeout_timer       // -- Begin function pch_timeout_timer
	.globl	pch_timeout_timer
	.p2align	2
	.type	pch_timeout_timer,@function
pch_timeout_timer:                      // @pch_timeout_timer
.Lfunc_begin9:
	.loc	1 892 0 is_stmt 1       // /mnt/disk/jenkins/workspace/release/opensource/component_code/vendor/huawei/extra/build/build_script/kirin_kernel_release/kernel/mm/pagecache_manage.c:892:0
	.cfi_startproc
// %bb.0:
	//DEBUG_VALUE: pch_timeout_timer:data <- $x0
	.loc	1 782 41 prologue_end   // /mnt/disk/jenkins/workspace/release/opensource/component_code/vendor/huawei/extra/build/build_script/kirin_kernel_release/kernel/mm/pagecache_manage.c:782:41
	adrp	x8, pch_info
	ldr	x8, [x8, :lo12:pch_info]
.Ltmp310:
	//DEBUG_VALUE: test_bit:nr <- 1
	//DEBUG_VALUE: test_bit:addr <- [DW_OP_plus_uconst 192, DW_OP_stack_value] $x8
	.loc	152 106 16              // /mnt/disk/jenkins/workspace/release/opensource/component_code/vendor/huawei/extra/build/build_script/kirin_kernel_release/kernel/include/asm-generic/bitops/non-atomic.h:106:16
	ldr	x9, [x8, #192]
.Ltmp311:
	.loc	1 893 6                 // /mnt/disk/jenkins/workspace/release/opensource/component_code/vendor/huawei/extra/build/build_script/kirin_kernel_release/kernel/mm/pagecache_manage.c:893:6
	tbnz	w9, #1, .LBB9_2
.Ltmp312:
// %bb.1:
	//DEBUG_VALUE: pch_timeout_timer:data <- $x0
	stp	x29, x30, [sp, #-16]!   // 16-byte Folded Spill
	mov	x29, sp
	.cfi_def_cfa w29, 16
	.cfi_offset w30, -8
	.cfi_offset w29, -16
.Ltmp313:
	.loc	67 549 20               // /mnt/disk/jenkins/workspace/release/opensource/component_code/vendor/huawei/extra/build/build_script/kirin_kernel_release/kernel/include/linux/workqueue.h:549:20
	adrp	x9, system_wq
	ldr	x1, [x9, :lo12:system_wq]
.Ltmp314:
	.loc	1 894 28                // /mnt/disk/jenkins/workspace/release/opensource/component_code/vendor/huawei/extra/build/build_script/kirin_kernel_release/kernel/mm/pagecache_manage.c:894:28
	add	x2, x8, #112            // =112
.Ltmp315:
	//DEBUG_VALUE: schedule_work:work <- $x2
	//DEBUG_VALUE: queue_work:work <- $x2
	//DEBUG_VALUE: queue_work:wq <- $x1
	.loc	67 491 9                // /mnt/disk/jenkins/workspace/release/opensource/component_code/vendor/huawei/extra/build/build_script/kirin_kernel_release/kernel/include/linux/workqueue.h:491:9
	orr	w0, wzr, #0x8
.Ltmp316:
	bl	queue_work_on
.Ltmp317:
	.loc	67 0 9 is_stmt 0        // /mnt/disk/jenkins/workspace/release/opensource/component_code/vendor/huawei/extra/build/build_script/kirin_kernel_release/kernel/include/linux/workqueue.h:0:9
	ldp	x29, x30, [sp], #16     // 16-byte Folded Reload
.Ltmp318:
.LBB9_2:
	.loc	1 895 1 is_stmt 1       // /mnt/disk/jenkins/workspace/release/opensource/component_code/vendor/huawei/extra/build/build_script/kirin_kernel_release/kernel/mm/pagecache_manage.c:895:1
	ret
.Ltmp319:
.Lfunc_end9:
	.size	pch_timeout_timer, .Lfunc_end9-pch_timeout_timer
	.cfi_endproc
                                        // -- End function
	.section	.text.mount_fs_register_pch,"ax",@progbits
	.hidden	mount_fs_register_pch   // -- Begin function mount_fs_register_pch
	.globl	mount_fs_register_pch
	.p2align	2
	.type	mount_fs_register_pch,@function
mount_fs_register_pch:                  // @mount_fs_register_pch
.Lfunc_begin10:
	.loc	1 929 0                 // /mnt/disk/jenkins/workspace/release/opensource/component_code/vendor/huawei/extra/build/build_script/kirin_kernel_release/kernel/mm/pagecache_manage.c:929:0
	.cfi_startproc
// %bb.0:
	str	x19, [sp, #-32]!        // 8-byte Folded Spill
	stp	x29, x30, [sp, #16]     // 16-byte Folded Spill
	add	x29, sp, #16            // =16
	.cfi_def_cfa w29, 16
	.cfi_offset w30, -8
	.cfi_offset w29, -16
	.cfi_offset w19, -32
	//DEBUG_VALUE: mount_fs_register_pch:mnt <- $x0
	//DEBUG_VALUE: mount_fs_register_pch:mnt <- $x0
.Ltmp320:
	.loc	1 930 32 prologue_end   // /mnt/disk/jenkins/workspace/release/opensource/component_code/vendor/huawei/extra/build/build_script/kirin_kernel_release/kernel/mm/pagecache_manage.c:930:32
	ldr	x8, [x0, #8]
.Ltmp321:
	//DEBUG_VALUE: mount_fs_register_pch:ret <- 0
	//DEBUG_VALUE: mount_fs_register_pch:sb <- $x8
	.loc	1 0 32 is_stmt 0        // /mnt/disk/jenkins/workspace/release/opensource/component_code/vendor/huawei/extra/build/build_script/kirin_kernel_release/kernel/mm/pagecache_manage.c:0:32
	mov	w10, #8208
	movk	w10, #62197, lsl #16
.Ltmp322:
	.loc	1 933 10 is_stmt 1      // /mnt/disk/jenkins/workspace/release/opensource/component_code/vendor/huawei/extra/build/build_script/kirin_kernel_release/kernel/mm/pagecache_manage.c:933:10
	ldr	x9, [x8, #96]
.Ltmp323:
	.loc	1 933 6 is_stmt 0       // /mnt/disk/jenkins/workspace/release/opensource/component_code/vendor/huawei/extra/build/build_script/kirin_kernel_release/kernel/mm/pagecache_manage.c:933:6
	cmp	x9, x10
	b.ne	.LBB10_4
.Ltmp324:
// %bb.1:
	//DEBUG_VALUE: mount_fs_register_pch:sb <- $x8
	//DEBUG_VALUE: mount_fs_register_pch:mnt <- $x0
	.loc	1 124 10 is_stmt 1      // /mnt/disk/jenkins/workspace/release/opensource/component_code/vendor/huawei/extra/build/build_script/kirin_kernel_release/kernel/mm/pagecache_manage.c:124:10
	adrp	x19, pch_info
	ldr	x0, [x19, :lo12:pch_info]
.Ltmp325:
	.loc	1 124 20 is_stmt 0      // /mnt/disk/jenkins/workspace/release/opensource/component_code/vendor/huawei/extra/build/build_script/kirin_kernel_release/kernel/mm/pagecache_manage.c:124:20
	ldr	w9, [x0, #228]
.Ltmp326:
	.loc	1 934 7 is_stmt 1       // /mnt/disk/jenkins/workspace/release/opensource/component_code/vendor/huawei/extra/build/build_script/kirin_kernel_release/kernel/mm/pagecache_manage.c:934:7
	tbnz	w9, #2, .LBB10_7
.Ltmp327:
// %bb.2:
	//DEBUG_VALUE: mount_fs_register_pch:sb <- $x8
	.loc	1 938 4                 // /mnt/disk/jenkins/workspace/release/opensource/component_code/vendor/huawei/extra/build/build_script/kirin_kernel_release/kernel/mm/pagecache_manage.c:938:4
	adrp	x8, g_pch_print_level
.Ltmp328:
	ldr	w8, [x8, :lo12:g_pch_print_level]
.Ltmp329:
	.loc	1 938 4 is_stmt 0       // /mnt/disk/jenkins/workspace/release/opensource/component_code/vendor/huawei/extra/build/build_script/kirin_kernel_release/kernel/mm/pagecache_manage.c:938:4
	cmp	w8, #2                  // =2
	b.lo	.LBB10_8
// %bb.3:
.Ltmp330:
	.loc	1 938 4                 // /mnt/disk/jenkins/workspace/release/opensource/component_code/vendor/huawei/extra/build/build_script/kirin_kernel_release/kernel/mm/pagecache_manage.c:938:4
	adrp	x0, .L.str.2
	add	x0, x0, :lo12:.L.str.2
	b	.LBB10_6
.Ltmp331:
.LBB10_4:
	//DEBUG_VALUE: mount_fs_register_pch:sb <- $x8
	//DEBUG_VALUE: mount_fs_register_pch:mnt <- $x0
	.loc	1 943 3 is_stmt 1       // /mnt/disk/jenkins/workspace/release/opensource/component_code/vendor/huawei/extra/build/build_script/kirin_kernel_release/kernel/mm/pagecache_manage.c:943:3
	adrp	x8, g_pch_print_level
.Ltmp332:
	ldr	w8, [x8, :lo12:g_pch_print_level]
.Ltmp333:
	.loc	1 943 3 is_stmt 0       // /mnt/disk/jenkins/workspace/release/opensource/component_code/vendor/huawei/extra/build/build_script/kirin_kernel_release/kernel/mm/pagecache_manage.c:943:3
	cmp	w8, #2                  // =2
	b.lo	.LBB10_8
.Ltmp334:
// %bb.5:
	//DEBUG_VALUE: mount_fs_register_pch:mnt <- $x0
	.loc	1 943 3                 // /mnt/disk/jenkins/workspace/release/opensource/component_code/vendor/huawei/extra/build/build_script/kirin_kernel_release/kernel/mm/pagecache_manage.c:943:3
	adrp	x0, .L.str.3
.Ltmp335:
	add	x0, x0, :lo12:.L.str.3
.Ltmp336:
.LBB10_6:
	.loc	1 0 0                   // /mnt/disk/jenkins/workspace/release/opensource/component_code/vendor/huawei/extra/build/build_script/kirin_kernel_release/kernel/mm/pagecache_manage.c:0:0
	adrp	x1, .L__func__.mount_fs_register_pch
	add	x1, x1, :lo12:.L__func__.mount_fs_register_pch
	bl	printk
	b	.LBB10_8
.LBB10_7:
.Ltmp337:
	//DEBUG_VALUE: mount_fs_register_pch:sb <- $x8
	.loc	1 949 17 is_stmt 1      // /mnt/disk/jenkins/workspace/release/opensource/component_code/vendor/huawei/extra/build/build_script/kirin_kernel_release/kernel/mm/pagecache_manage.c:949:17
	ldr	x10, [x0, #56]
.Ltmp338:
	.loc	1 139 26                // /mnt/disk/jenkins/workspace/release/opensource/component_code/vendor/huawei/extra/build/build_script/kirin_kernel_release/kernel/mm/pagecache_manage.c:139:26
	and	w9, w9, #0xfffffffb
.Ltmp339:
	.loc	1 149 26                // /mnt/disk/jenkins/workspace/release/opensource/component_code/vendor/huawei/extra/build/build_script/kirin_kernel_release/kernel/mm/pagecache_manage.c:149:26
	orr	w9, w9, #0x1
	str	w9, [x0, #228]
.Ltmp340:
	.loc	1 949 7                 // /mnt/disk/jenkins/workspace/release/opensource/component_code/vendor/huawei/extra/build/build_script/kirin_kernel_release/kernel/mm/pagecache_manage.c:949:7
	cbz	x10, .LBB10_9
.Ltmp341:
.LBB10_8:
	.loc	1 964 1                 // /mnt/disk/jenkins/workspace/release/opensource/component_code/vendor/huawei/extra/build/build_script/kirin_kernel_release/kernel/mm/pagecache_manage.c:964:1
	ldp	x29, x30, [sp, #16]     // 16-byte Folded Reload
	ldr	x19, [sp], #32          // 8-byte Folded Reload
	ret
.LBB10_9:
.Ltmp342:
	//DEBUG_VALUE: mount_fs_register_pch:sb <- $x8
	.loc	1 952 12                // /mnt/disk/jenkins/workspace/release/opensource/component_code/vendor/huawei/extra/build/build_script/kirin_kernel_release/kernel/mm/pagecache_manage.c:952:12
	ldr	x8, [x8, #240]
.Ltmp343:
	.loc	1 952 7 is_stmt 0       // /mnt/disk/jenkins/workspace/release/opensource/component_code/vendor/huawei/extra/build/build_script/kirin_kernel_release/kernel/mm/pagecache_manage.c:952:7
	cbz	x8, .LBB10_8
// %bb.10:
	.loc	1 955 18 is_stmt 1      // /mnt/disk/jenkins/workspace/release/opensource/component_code/vendor/huawei/extra/build/build_script/kirin_kernel_release/kernel/mm/pagecache_manage.c:955:18
	str	x8, [x0, #56]
	.loc	1 956 56                // /mnt/disk/jenkins/workspace/release/opensource/component_code/vendor/huawei/extra/build/build_script/kirin_kernel_release/kernel/mm/pagecache_manage.c:956:56
	adrp	x8, pch_io_idle_notify_handler
	.loc	1 958 3                 // /mnt/disk/jenkins/workspace/release/opensource/component_code/vendor/huawei/extra/build/build_script/kirin_kernel_release/kernel/mm/pagecache_manage.c:958:3
	adrp	x1, .L.str.4
	.loc	1 956 56                // /mnt/disk/jenkins/workspace/release/opensource/component_code/vendor/huawei/extra/build/build_script/kirin_kernel_release/kernel/mm/pagecache_manage.c:956:56
	add	x8, x8, :lo12:pch_io_idle_notify_handler
	.loc	1 958 3                 // /mnt/disk/jenkins/workspace/release/opensource/component_code/vendor/huawei/extra/build/build_script/kirin_kernel_release/kernel/mm/pagecache_manage.c:958:3
	add	x1, x1, :lo12:.L.str.4
	orr	w2, wzr, #0x20
	.loc	1 956 56                // /mnt/disk/jenkins/workspace/release/opensource/component_code/vendor/huawei/extra/build/build_script/kirin_kernel_release/kernel/mm/pagecache_manage.c:956:56
	str	x8, [x0, #32]
	.loc	1 958 3                 // /mnt/disk/jenkins/workspace/release/opensource/component_code/vendor/huawei/extra/build/build_script/kirin_kernel_release/kernel/mm/pagecache_manage.c:958:3
	bl	strncpy
	.loc	1 960 5                 // /mnt/disk/jenkins/workspace/release/opensource/component_code/vendor/huawei/extra/build/build_script/kirin_kernel_release/kernel/mm/pagecache_manage.c:960:5
	ldr	x1, [x19, :lo12:pch_info]
	.loc	1 960 15 is_stmt 0      // /mnt/disk/jenkins/workspace/release/opensource/component_code/vendor/huawei/extra/build/build_script/kirin_kernel_release/kernel/mm/pagecache_manage.c:960:15
	ldr	x0, [x1, #56]
	.loc	1 959 9 is_stmt 1       // /mnt/disk/jenkins/workspace/release/opensource/component_code/vendor/huawei/extra/build/build_script/kirin_kernel_release/kernel/mm/pagecache_manage.c:959:9
	bl	blk_busy_idle_event_subscriber
.Ltmp344:
	//DEBUG_VALUE: mount_fs_register_pch:ret <- $w0
	.loc	1 961 7                 // /mnt/disk/jenkins/workspace/release/opensource/component_code/vendor/huawei/extra/build/build_script/kirin_kernel_release/kernel/mm/pagecache_manage.c:961:7
	cbz	w0, .LBB10_8
.Ltmp345:
// %bb.11:
	//DEBUG_VALUE: mount_fs_register_pch:ret <- $w0
	.loc	1 962 4                 // /mnt/disk/jenkins/workspace/release/opensource/component_code/vendor/huawei/extra/build/build_script/kirin_kernel_release/kernel/mm/pagecache_manage.c:962:4
	adrp	x0, .L.str.5
.Ltmp346:
	add	x0, x0, :lo12:.L.str.5
	b	.LBB10_6
.Ltmp347:
.Lfunc_end10:
	.size	mount_fs_register_pch, .Lfunc_end10-mount_fs_register_pch
	.cfi_endproc
                                        // -- End function
	.section	.text.pch_io_idle_notify_handler,"ax",@progbits
	.p2align	2               // -- Begin function pch_io_idle_notify_handler
	.type	pch_io_idle_notify_handler,@function
pch_io_idle_notify_handler:             // @pch_io_idle_notify_handler
.Lfunc_begin11:
	.loc	1 910 0                 // /mnt/disk/jenkins/workspace/release/opensource/component_code/vendor/huawei/extra/build/build_script/kirin_kernel_release/kernel/mm/pagecache_manage.c:910:0
	.cfi_startproc
// %bb.0:
	stp	x20, x19, [sp, #-32]!   // 16-byte Folded Spill
	stp	x29, x30, [sp, #16]     // 16-byte Folded Spill
	add	x29, sp, #16            // =16
	.cfi_def_cfa w29, 16
	.cfi_offset w30, -8
	.cfi_offset w29, -16
	.cfi_offset w19, -24
	.cfi_offset w20, -32
	//DEBUG_VALUE: pch_io_idle_notify_handler:nb <- $x0
	//DEBUG_VALUE: pch_io_idle_notify_handler:state <- $w1
	//DEBUG_VALUE: pch_io_idle_notify_handler:state <- $w1
.Ltmp348:
	.loc	1 911 6 prologue_end    // /mnt/disk/jenkins/workspace/release/opensource/component_code/vendor/huawei/extra/build/build_script/kirin_kernel_release/kernel/mm/pagecache_manage.c:911:6
	cbz	w1, .LBB11_3
.Ltmp349:
// %bb.1:
	//DEBUG_VALUE: pch_io_idle_notify_handler:state <- $w1
	//DEBUG_VALUE: pch_io_idle_notify_handler:nb <- $x0
	cmp	w1, #1                  // =1
	b.ne	.LBB11_4
.Ltmp350:
// %bb.2:
	//DEBUG_VALUE: pch_io_idle_notify_handler:state <- $w1
	//DEBUG_VALUE: pch_io_idle_notify_handler:nb <- $x0
	.loc	1 912 14                // /mnt/disk/jenkins/workspace/release/opensource/component_code/vendor/huawei/extra/build/build_script/kirin_kernel_release/kernel/mm/pagecache_manage.c:912:14
	adrp	x8, pch_info
	ldr	x8, [x8, :lo12:pch_info]
	.loc	1 912 31 is_stmt 0      // /mnt/disk/jenkins/workspace/release/opensource/component_code/vendor/huawei/extra/build/build_script/kirin_kernel_release/kernel/mm/pagecache_manage.c:912:31
	adrp	x9, jiffies
	ldr	x20, [x9, :lo12:jiffies]
.Ltmp351:
	.file	153 "/mnt/disk/jenkins/workspace/release/opensource/component_code/vendor/huawei/extra/build/build_script/kirin_kernel_release/kernel/include/linux/jiffies.h"
	.loc	153 370 10 is_stmt 1    // /mnt/disk/jenkins/workspace/release/opensource/component_code/vendor/huawei/extra/build/build_script/kirin_kernel_release/kernel/include/linux/jiffies.h:370:10
	mov	w0, #5000
.Ltmp352:
	.loc	1 912 24                // /mnt/disk/jenkins/workspace/release/opensource/component_code/vendor/huawei/extra/build/build_script/kirin_kernel_release/kernel/mm/pagecache_manage.c:912:24
	add	x19, x8, #64            // =64
.Ltmp353:
	//DEBUG_VALUE: msecs_to_jiffies:m <- 5000
	.loc	153 370 10              // /mnt/disk/jenkins/workspace/release/opensource/component_code/vendor/huawei/extra/build/build_script/kirin_kernel_release/kernel/include/linux/jiffies.h:370:10
	bl	__msecs_to_jiffies
.Ltmp354:
	.loc	1 912 39                // /mnt/disk/jenkins/workspace/release/opensource/component_code/vendor/huawei/extra/build/build_script/kirin_kernel_release/kernel/mm/pagecache_manage.c:912:39
	add	x1, x0, x20
	.loc	1 912 3 is_stmt 0       // /mnt/disk/jenkins/workspace/release/opensource/component_code/vendor/huawei/extra/build/build_script/kirin_kernel_release/kernel/mm/pagecache_manage.c:912:3
	mov	x0, x19
	bl	mod_timer
	b	.LBB11_4
.LBB11_3:
.Ltmp355:
	//DEBUG_VALUE: pch_io_idle_notify_handler:state <- $w1
	//DEBUG_VALUE: pch_io_idle_notify_handler:nb <- $x0
	.loc	1 914 14 is_stmt 1      // /mnt/disk/jenkins/workspace/release/opensource/component_code/vendor/huawei/extra/build/build_script/kirin_kernel_release/kernel/mm/pagecache_manage.c:914:14
	adrp	x8, pch_info
	ldr	x8, [x8, :lo12:pch_info]
	.loc	1 914 24 is_stmt 0      // /mnt/disk/jenkins/workspace/release/opensource/component_code/vendor/huawei/extra/build/build_script/kirin_kernel_release/kernel/mm/pagecache_manage.c:914:24
	add	x0, x8, #64             // =64
.Ltmp356:
	.loc	1 914 3                 // /mnt/disk/jenkins/workspace/release/opensource/component_code/vendor/huawei/extra/build/build_script/kirin_kernel_release/kernel/mm/pagecache_manage.c:914:3
	bl	del_timer
.Ltmp357:
.LBB11_4:
	.loc	1 916 2 is_stmt 1       // /mnt/disk/jenkins/workspace/release/opensource/component_code/vendor/huawei/extra/build/build_script/kirin_kernel_release/kernel/mm/pagecache_manage.c:916:2
	ldp	x29, x30, [sp, #16]     // 16-byte Folded Reload
	mov	w0, wzr
	ldp	x20, x19, [sp], #32     // 16-byte Folded Reload
	ret
.Ltmp358:
.Lfunc_end11:
	.size	pch_io_idle_notify_handler, .Lfunc_end11-pch_io_idle_notify_handler
	.cfi_endproc
                                        // -- End function
	.section	.text.umounting_fs_register_pch,"ax",@progbits
	.hidden	umounting_fs_register_pch // -- Begin function umounting_fs_register_pch
	.globl	umounting_fs_register_pch
	.p2align	2
	.type	umounting_fs_register_pch,@function
umounting_fs_register_pch:              // @umounting_fs_register_pch
.Lfunc_begin12:
	.loc	1 976 0                 // /mnt/disk/jenkins/workspace/release/opensource/component_code/vendor/huawei/extra/build/build_script/kirin_kernel_release/kernel/mm/pagecache_manage.c:976:0
	.cfi_startproc
// %bb.0:
	str	x19, [sp, #-32]!        // 8-byte Folded Spill
	stp	x29, x30, [sp, #16]     // 16-byte Folded Spill
	add	x29, sp, #16            // =16
	.cfi_def_cfa w29, 16
	.cfi_offset w30, -8
	.cfi_offset w29, -16
	.cfi_offset w19, -32
	//DEBUG_VALUE: umounting_fs_register_pch:sb <- $x0
	//DEBUG_VALUE: umounting_fs_register_pch:sb <- $x0
.Ltmp359:
	//DEBUG_VALUE: umounting_fs_register_pch:ret <- 0
	.loc	1 979 10 prologue_end   // /mnt/disk/jenkins/workspace/release/opensource/component_code/vendor/huawei/extra/build/build_script/kirin_kernel_release/kernel/mm/pagecache_manage.c:979:10
	ldr	x8, [x0, #96]
	mov	w9, #8208
	movk	w9, #62197, lsl #16
.Ltmp360:
	.loc	1 979 6 is_stmt 0       // /mnt/disk/jenkins/workspace/release/opensource/component_code/vendor/huawei/extra/build/build_script/kirin_kernel_release/kernel/mm/pagecache_manage.c:979:6
	cmp	x8, x9
	b.ne	.LBB12_4
.Ltmp361:
// %bb.1:
	//DEBUG_VALUE: umounting_fs_register_pch:sb <- $x0
	.loc	1 119 10 is_stmt 1      // /mnt/disk/jenkins/workspace/release/opensource/component_code/vendor/huawei/extra/build/build_script/kirin_kernel_release/kernel/mm/pagecache_manage.c:119:10
	adrp	x19, pch_info
	ldr	x8, [x19, :lo12:pch_info]
	.loc	1 119 20 is_stmt 0      // /mnt/disk/jenkins/workspace/release/opensource/component_code/vendor/huawei/extra/build/build_script/kirin_kernel_release/kernel/mm/pagecache_manage.c:119:20
	ldr	w9, [x8, #228]
.Ltmp362:
	.loc	1 980 7 is_stmt 1       // /mnt/disk/jenkins/workspace/release/opensource/component_code/vendor/huawei/extra/build/build_script/kirin_kernel_release/kernel/mm/pagecache_manage.c:980:7
	tbnz	w9, #0, .LBB12_7
.Ltmp363:
// %bb.2:
	//DEBUG_VALUE: umounting_fs_register_pch:sb <- $x0
	.loc	1 997 4                 // /mnt/disk/jenkins/workspace/release/opensource/component_code/vendor/huawei/extra/build/build_script/kirin_kernel_release/kernel/mm/pagecache_manage.c:997:4
	adrp	x8, g_pch_print_level
	ldr	w8, [x8, :lo12:g_pch_print_level]
.Ltmp364:
	.loc	1 997 4 is_stmt 0       // /mnt/disk/jenkins/workspace/release/opensource/component_code/vendor/huawei/extra/build/build_script/kirin_kernel_release/kernel/mm/pagecache_manage.c:997:4
	cmp	w8, #2                  // =2
	b.lo	.LBB12_11
.Ltmp365:
// %bb.3:
	//DEBUG_VALUE: umounting_fs_register_pch:sb <- $x0
	.loc	1 997 4                 // /mnt/disk/jenkins/workspace/release/opensource/component_code/vendor/huawei/extra/build/build_script/kirin_kernel_release/kernel/mm/pagecache_manage.c:997:4
	adrp	x0, .L.str.7
.Ltmp366:
	add	x0, x0, :lo12:.L.str.7
	b	.LBB12_6
.Ltmp367:
.LBB12_4:
	//DEBUG_VALUE: umounting_fs_register_pch:sb <- $x0
	.loc	1 1002 3 is_stmt 1      // /mnt/disk/jenkins/workspace/release/opensource/component_code/vendor/huawei/extra/build/build_script/kirin_kernel_release/kernel/mm/pagecache_manage.c:1002:3
	adrp	x8, g_pch_print_level
	ldr	w8, [x8, :lo12:g_pch_print_level]
.Ltmp368:
	.loc	1 1002 3 is_stmt 0      // /mnt/disk/jenkins/workspace/release/opensource/component_code/vendor/huawei/extra/build/build_script/kirin_kernel_release/kernel/mm/pagecache_manage.c:1002:3
	cmp	w8, #2                  // =2
	b.lo	.LBB12_11
.Ltmp369:
// %bb.5:
	//DEBUG_VALUE: umounting_fs_register_pch:sb <- $x0
	.loc	1 1002 3                // /mnt/disk/jenkins/workspace/release/opensource/component_code/vendor/huawei/extra/build/build_script/kirin_kernel_release/kernel/mm/pagecache_manage.c:1002:3
	adrp	x0, .L.str.3
.Ltmp370:
	add	x0, x0, :lo12:.L.str.3
.Ltmp371:
.LBB12_6:
	.loc	1 0 0                   // /mnt/disk/jenkins/workspace/release/opensource/component_code/vendor/huawei/extra/build/build_script/kirin_kernel_release/kernel/mm/pagecache_manage.c:0:0
	adrp	x1, .L__func__.umounting_fs_register_pch
	add	x1, x1, :lo12:.L__func__.umounting_fs_register_pch
	bl	printk
	b	.LBB12_11
.LBB12_7:
.Ltmp372:
	//DEBUG_VALUE: umounting_fs_register_pch:sb <- $x0
	.loc	1 984 18 is_stmt 1      // /mnt/disk/jenkins/workspace/release/opensource/component_code/vendor/huawei/extra/build/build_script/kirin_kernel_release/kernel/mm/pagecache_manage.c:984:18
	ldr	x10, [x8, #56]
.Ltmp373:
	.loc	1 134 26                // /mnt/disk/jenkins/workspace/release/opensource/component_code/vendor/huawei/extra/build/build_script/kirin_kernel_release/kernel/mm/pagecache_manage.c:134:26
	and	w9, w9, #0xfffffffc
.Ltmp374:
	.loc	1 159 26                // /mnt/disk/jenkins/workspace/release/opensource/component_code/vendor/huawei/extra/build/build_script/kirin_kernel_release/kernel/mm/pagecache_manage.c:159:26
	orr	w9, w9, #0x2
	str	w9, [x8, #228]
.Ltmp375:
	.loc	1 984 8                 // /mnt/disk/jenkins/workspace/release/opensource/component_code/vendor/huawei/extra/build/build_script/kirin_kernel_release/kernel/mm/pagecache_manage.c:984:8
	cbz	x10, .LBB12_11
.Ltmp376:
// %bb.8:
	//DEBUG_VALUE: umounting_fs_register_pch:sb <- $x0
	.loc	1 985 31                // /mnt/disk/jenkins/workspace/release/opensource/component_code/vendor/huawei/extra/build/build_script/kirin_kernel_release/kernel/mm/pagecache_manage.c:985:31
	add	x0, x8, #64             // =64
.Ltmp377:
	.loc	1 985 5 is_stmt 0       // /mnt/disk/jenkins/workspace/release/opensource/component_code/vendor/huawei/extra/build/build_script/kirin_kernel_release/kernel/mm/pagecache_manage.c:985:5
	bl	del_timer_sync
	.loc	1 986 17 is_stmt 1      // /mnt/disk/jenkins/workspace/release/opensource/component_code/vendor/huawei/extra/build/build_script/kirin_kernel_release/kernel/mm/pagecache_manage.c:986:17
	ldr	x8, [x19, :lo12:pch_info]
	.loc	1 986 27 is_stmt 0      // /mnt/disk/jenkins/workspace/release/opensource/component_code/vendor/huawei/extra/build/build_script/kirin_kernel_release/kernel/mm/pagecache_manage.c:986:27
	add	x0, x8, #112            // =112
	.loc	1 986 5                 // /mnt/disk/jenkins/workspace/release/opensource/component_code/vendor/huawei/extra/build/build_script/kirin_kernel_release/kernel/mm/pagecache_manage.c:986:5
	bl	flush_work
	.loc	1 987 11 is_stmt 1      // /mnt/disk/jenkins/workspace/release/opensource/component_code/vendor/huawei/extra/build/build_script/kirin_kernel_release/kernel/mm/pagecache_manage.c:987:11
	ldr	x8, [x19, :lo12:pch_info]
	.loc	1 987 21 is_stmt 0      // /mnt/disk/jenkins/workspace/release/opensource/component_code/vendor/huawei/extra/build/build_script/kirin_kernel_release/kernel/mm/pagecache_manage.c:987:21
	add	x0, x8, #144            // =144
	.loc	1 987 5                 // /mnt/disk/jenkins/workspace/release/opensource/component_code/vendor/huawei/extra/build/build_script/kirin_kernel_release/kernel/mm/pagecache_manage.c:987:5
	bl	down
	.loc	1 988 45 is_stmt 1      // /mnt/disk/jenkins/workspace/release/opensource/component_code/vendor/huawei/extra/build/build_script/kirin_kernel_release/kernel/mm/pagecache_manage.c:988:45
	ldr	x0, [x19, :lo12:pch_info]
	.loc	1 988 11 is_stmt 0      // /mnt/disk/jenkins/workspace/release/opensource/component_code/vendor/huawei/extra/build/build_script/kirin_kernel_release/kernel/mm/pagecache_manage.c:988:11
	bl	blk_busy_idle_event_unsubscriber
.Ltmp378:
	//DEBUG_VALUE: umounting_fs_register_pch:ret <- $w0
	.loc	1 989 9 is_stmt 1       // /mnt/disk/jenkins/workspace/release/opensource/component_code/vendor/huawei/extra/build/build_script/kirin_kernel_release/kernel/mm/pagecache_manage.c:989:9
	cbz	w0, .LBB12_10
.Ltmp379:
// %bb.9:
	//DEBUG_VALUE: umounting_fs_register_pch:ret <- $w0
	.loc	1 990 6                 // /mnt/disk/jenkins/workspace/release/opensource/component_code/vendor/huawei/extra/build/build_script/kirin_kernel_release/kernel/mm/pagecache_manage.c:990:6
	adrp	x0, .L.str.6
.Ltmp380:
	adrp	x1, .L__func__.umounting_fs_register_pch
	add	x0, x0, :lo12:.L.str.6
	add	x1, x1, :lo12:.L__func__.umounting_fs_register_pch
	bl	printk
.Ltmp381:
.LBB12_10:
	.loc	1 0 0 is_stmt 0         // /mnt/disk/jenkins/workspace/release/opensource/component_code/vendor/huawei/extra/build/build_script/kirin_kernel_release/kernel/mm/pagecache_manage.c:0:0
	ldr	x8, [x19, :lo12:pch_info]
	add	x0, x8, #144            // =144
	bl	up
.Ltmp382:
.LBB12_11:
	.loc	1 1006 1 is_stmt 1      // /mnt/disk/jenkins/workspace/release/opensource/component_code/vendor/huawei/extra/build/build_script/kirin_kernel_release/kernel/mm/pagecache_manage.c:1006:1
	ldp	x29, x30, [sp, #16]     // 16-byte Folded Reload
	ldr	x19, [sp], #32          // 8-byte Folded Reload
	ret
.Ltmp383:
.Lfunc_end12:
	.size	umounting_fs_register_pch, .Lfunc_end12-umounting_fs_register_pch
	.cfi_endproc
                                        // -- End function
	.section	.text.umounted_fs_register_pch,"ax",@progbits
	.hidden	umounted_fs_register_pch // -- Begin function umounted_fs_register_pch
	.globl	umounted_fs_register_pch
	.p2align	2
	.type	umounted_fs_register_pch,@function
umounted_fs_register_pch:               // @umounted_fs_register_pch
.Lfunc_begin13:
	.loc	1 1017 0                // /mnt/disk/jenkins/workspace/release/opensource/component_code/vendor/huawei/extra/build/build_script/kirin_kernel_release/kernel/mm/pagecache_manage.c:1017:0
	.cfi_startproc
// %bb.0:
	stp	x29, x30, [sp, #-16]!   // 16-byte Folded Spill
	mov	x29, sp
	.cfi_def_cfa w29, 16
	.cfi_offset w30, -8
	.cfi_offset w29, -16
	//DEBUG_VALUE: umounted_fs_register_pch:sb <- $x0
	//DEBUG_VALUE: umounted_fs_register_pch:sb <- $x0
.Ltmp384:
	.loc	1 1018 10 prologue_end  // /mnt/disk/jenkins/workspace/release/opensource/component_code/vendor/huawei/extra/build/build_script/kirin_kernel_release/kernel/mm/pagecache_manage.c:1018:10
	ldr	x8, [x0, #96]
	mov	w9, #8208
	movk	w9, #62197, lsl #16
.Ltmp385:
	.loc	1 1018 6 is_stmt 0      // /mnt/disk/jenkins/workspace/release/opensource/component_code/vendor/huawei/extra/build/build_script/kirin_kernel_release/kernel/mm/pagecache_manage.c:1018:6
	cmp	x8, x9
	b.ne	.LBB13_4
.Ltmp386:
// %bb.1:
	//DEBUG_VALUE: umounted_fs_register_pch:sb <- $x0
	.loc	1 129 10 is_stmt 1      // /mnt/disk/jenkins/workspace/release/opensource/component_code/vendor/huawei/extra/build/build_script/kirin_kernel_release/kernel/mm/pagecache_manage.c:129:10
	adrp	x8, pch_info
	ldr	x8, [x8, :lo12:pch_info]
	.loc	1 129 20 is_stmt 0      // /mnt/disk/jenkins/workspace/release/opensource/component_code/vendor/huawei/extra/build/build_script/kirin_kernel_release/kernel/mm/pagecache_manage.c:129:20
	ldr	w9, [x8, #228]
.Ltmp387:
	.loc	1 1019 7 is_stmt 1      // /mnt/disk/jenkins/workspace/release/opensource/component_code/vendor/huawei/extra/build/build_script/kirin_kernel_release/kernel/mm/pagecache_manage.c:1019:7
	tbnz	w9, #1, .LBB13_8
.Ltmp388:
// %bb.2:
	//DEBUG_VALUE: umounted_fs_register_pch:sb <- $x0
	.loc	1 1023 4                // /mnt/disk/jenkins/workspace/release/opensource/component_code/vendor/huawei/extra/build/build_script/kirin_kernel_release/kernel/mm/pagecache_manage.c:1023:4
	adrp	x8, g_pch_print_level
	ldr	w8, [x8, :lo12:g_pch_print_level]
.Ltmp389:
	.loc	1 1023 4 is_stmt 0      // /mnt/disk/jenkins/workspace/release/opensource/component_code/vendor/huawei/extra/build/build_script/kirin_kernel_release/kernel/mm/pagecache_manage.c:1023:4
	cmp	w8, #2                  // =2
	b.lo	.LBB13_7
.Ltmp390:
// %bb.3:
	//DEBUG_VALUE: umounted_fs_register_pch:sb <- $x0
	.loc	1 1023 4                // /mnt/disk/jenkins/workspace/release/opensource/component_code/vendor/huawei/extra/build/build_script/kirin_kernel_release/kernel/mm/pagecache_manage.c:1023:4
	adrp	x0, .L.str.2
.Ltmp391:
	add	x0, x0, :lo12:.L.str.2
	b	.LBB13_6
.Ltmp392:
.LBB13_4:
	//DEBUG_VALUE: umounted_fs_register_pch:sb <- $x0
	.loc	1 1028 3 is_stmt 1      // /mnt/disk/jenkins/workspace/release/opensource/component_code/vendor/huawei/extra/build/build_script/kirin_kernel_release/kernel/mm/pagecache_manage.c:1028:3
	adrp	x8, g_pch_print_level
	ldr	w8, [x8, :lo12:g_pch_print_level]
.Ltmp393:
	.loc	1 1028 3 is_stmt 0      // /mnt/disk/jenkins/workspace/release/opensource/component_code/vendor/huawei/extra/build/build_script/kirin_kernel_release/kernel/mm/pagecache_manage.c:1028:3
	cmp	w8, #2                  // =2
	b.lo	.LBB13_7
.Ltmp394:
// %bb.5:
	//DEBUG_VALUE: umounted_fs_register_pch:sb <- $x0
	.loc	1 1028 3                // /mnt/disk/jenkins/workspace/release/opensource/component_code/vendor/huawei/extra/build/build_script/kirin_kernel_release/kernel/mm/pagecache_manage.c:1028:3
	adrp	x0, .L.str.3
.Ltmp395:
	add	x0, x0, :lo12:.L.str.3
.Ltmp396:
.LBB13_6:
	.loc	1 0 0                   // /mnt/disk/jenkins/workspace/release/opensource/component_code/vendor/huawei/extra/build/build_script/kirin_kernel_release/kernel/mm/pagecache_manage.c:0:0
	adrp	x1, .L__func__.umounted_fs_register_pch
	add	x1, x1, :lo12:.L__func__.umounted_fs_register_pch
	bl	printk
.Ltmp397:
.LBB13_7:
	.loc	1 1033 1 is_stmt 1      // /mnt/disk/jenkins/workspace/release/opensource/component_code/vendor/huawei/extra/build/build_script/kirin_kernel_release/kernel/mm/pagecache_manage.c:1033:1
	ldp	x29, x30, [sp], #16     // 16-byte Folded Reload
	ret
.LBB13_8:
.Ltmp398:
	//DEBUG_VALUE: umounted_fs_register_pch:sb <- $x0
	.loc	1 144 26                // /mnt/disk/jenkins/workspace/release/opensource/component_code/vendor/huawei/extra/build/build_script/kirin_kernel_release/kernel/mm/pagecache_manage.c:144:26
	and	w9, w9, #0xfffffff9
.Ltmp399:
	.loc	1 154 26                // /mnt/disk/jenkins/workspace/release/opensource/component_code/vendor/huawei/extra/build/build_script/kirin_kernel_release/kernel/mm/pagecache_manage.c:154:26
	orr	w9, w9, #0x4
	str	w9, [x8, #228]
.Ltmp400:
	.loc	1 1033 1                // /mnt/disk/jenkins/workspace/release/opensource/component_code/vendor/huawei/extra/build/build_script/kirin_kernel_release/kernel/mm/pagecache_manage.c:1033:1
	ldp	x29, x30, [sp], #16     // 16-byte Folded Reload
	ret
.Ltmp401:
.Lfunc_end13:
	.size	umounted_fs_register_pch, .Lfunc_end13-umounted_fs_register_pch
	.cfi_endproc
                                        // -- End function
	.section	.text.pch_emui_bootstat_proc_show,"ax",@progbits
	.hidden	pch_emui_bootstat_proc_show // -- Begin function pch_emui_bootstat_proc_show
	.globl	pch_emui_bootstat_proc_show
	.p2align	2
	.type	pch_emui_bootstat_proc_show,@function
pch_emui_bootstat_proc_show:            // @pch_emui_bootstat_proc_show
.Lfunc_begin14:
	.loc	1 1070 0                // /mnt/disk/jenkins/workspace/release/opensource/component_code/vendor/huawei/extra/build/build_script/kirin_kernel_release/kernel/mm/pagecache_manage.c:1070:0
	.cfi_startproc
// %bb.0:
	stp	x29, x30, [sp, #-16]!   // 16-byte Folded Spill
	mov	x29, sp
	.cfi_def_cfa w29, 16
	.cfi_offset w30, -8
	.cfi_offset w29, -16
	//DEBUG_VALUE: pch_emui_bootstat_proc_show:m <- $x0
	//DEBUG_VALUE: pch_emui_bootstat_proc_show:v <- $x1
.Ltmp402:
	.loc	1 1071 24 prologue_end  // /mnt/disk/jenkins/workspace/release/opensource/component_code/vendor/huawei/extra/build/build_script/kirin_kernel_release/kernel/mm/pagecache_manage.c:1071:24
	adrp	x8, pch_info
	ldr	x8, [x8, :lo12:pch_info]
	.loc	1 1071 2 is_stmt 0      // /mnt/disk/jenkins/workspace/release/opensource/component_code/vendor/huawei/extra/build/build_script/kirin_kernel_release/kernel/mm/pagecache_manage.c:1071:2
	adrp	x1, .L.str.8
.Ltmp403:
	add	x1, x1, :lo12:.L.str.8
	//DEBUG_VALUE: pch_emui_bootstat_proc_show:m <- $x0
	.loc	1 1071 34               // /mnt/disk/jenkins/workspace/release/opensource/component_code/vendor/huawei/extra/build/build_script/kirin_kernel_release/kernel/mm/pagecache_manage.c:1071:34
	ldr	w2, [x8, #200]
	//DEBUG_VALUE: pch_emui_bootstat_proc_show:m <- $x0
	.loc	1 1071 2                // /mnt/disk/jenkins/workspace/release/opensource/component_code/vendor/huawei/extra/build/build_script/kirin_kernel_release/kernel/mm/pagecache_manage.c:1071:2
	bl	seq_printf
.Ltmp404:
	.loc	1 1072 2 is_stmt 1      // /mnt/disk/jenkins/workspace/release/opensource/component_code/vendor/huawei/extra/build/build_script/kirin_kernel_release/kernel/mm/pagecache_manage.c:1072:2
	mov	w0, wzr
	ldp	x29, x30, [sp], #16     // 16-byte Folded Reload
	ret
.Ltmp405:
.Lfunc_end14:
	.size	pch_emui_bootstat_proc_show, .Lfunc_end14-pch_emui_bootstat_proc_show
	.cfi_endproc
                                        // -- End function
	.section	.text.pch_emui_bootstat_proc_open,"ax",@progbits
	.hidden	pch_emui_bootstat_proc_open // -- Begin function pch_emui_bootstat_proc_open
	.globl	pch_emui_bootstat_proc_open
	.p2align	2
	.type	pch_emui_bootstat_proc_open,@function
pch_emui_bootstat_proc_open:            // @pch_emui_bootstat_proc_open
.Lfunc_begin15:
	.loc	1 1077 0                // /mnt/disk/jenkins/workspace/release/opensource/component_code/vendor/huawei/extra/build/build_script/kirin_kernel_release/kernel/mm/pagecache_manage.c:1077:0
	.cfi_startproc
// %bb.0:
	stp	x29, x30, [sp, #-16]!   // 16-byte Folded Spill
	mov	x29, sp
	.cfi_def_cfa w29, 16
	.cfi_offset w30, -8
	.cfi_offset w29, -16
	//DEBUG_VALUE: pch_emui_bootstat_proc_open:p_inode <- $x0
	//DEBUG_VALUE: pch_emui_bootstat_proc_open:p_file <- $x1
	mov	x0, x1
.Ltmp406:
	//DEBUG_VALUE: pch_emui_bootstat_proc_open:p_file <- $x0
	.loc	1 1078 9 prologue_end   // /mnt/disk/jenkins/workspace/release/opensource/component_code/vendor/huawei/extra/build/build_script/kirin_kernel_release/kernel/mm/pagecache_manage.c:1078:9
	adrp	x1, __cfi_pch_emui_bootstat_proc_show
	add	x1, x1, :lo12:__cfi_pch_emui_bootstat_proc_show
	//DEBUG_VALUE: pch_emui_bootstat_proc_open:p_file <- $x0
	mov	x2, xzr
	bl	single_open
.Ltmp407:
	.loc	1 1078 2 is_stmt 0      // /mnt/disk/jenkins/workspace/release/opensource/component_code/vendor/huawei/extra/build/build_script/kirin_kernel_release/kernel/mm/pagecache_manage.c:1078:2
	ldp	x29, x30, [sp], #16     // 16-byte Folded Reload
	ret
.Ltmp408:
.Lfunc_end15:
	.size	pch_emui_bootstat_proc_open, .Lfunc_end15-pch_emui_bootstat_proc_open
	.cfi_endproc
                                        // -- End function
	.section	.text.pch_emui_bootstat_proc_write,"ax",@progbits
	.hidden	pch_emui_bootstat_proc_write // -- Begin function pch_emui_bootstat_proc_write
	.globl	pch_emui_bootstat_proc_write
	.p2align	2
	.type	pch_emui_bootstat_proc_write,@function
pch_emui_bootstat_proc_write:           // @pch_emui_bootstat_proc_write
.Lfunc_begin16:
	.loc	1 1083 0 is_stmt 1      // /mnt/disk/jenkins/workspace/release/opensource/component_code/vendor/huawei/extra/build/build_script/kirin_kernel_release/kernel/mm/pagecache_manage.c:1083:0
	.cfi_startproc
// %bb.0:
	sub	sp, sp, #80             // =80
	str	x23, [sp, #16]          // 8-byte Folded Spill
	stp	x22, x21, [sp, #32]     // 16-byte Folded Spill
	stp	x20, x19, [sp, #48]     // 16-byte Folded Spill
	stp	x29, x30, [sp, #64]     // 16-byte Folded Spill
	add	x29, sp, #64            // =64
	.cfi_def_cfa w29, 16
	.cfi_offset w30, -8
	.cfi_offset w29, -16
	.cfi_offset w19, -24
	.cfi_offset w20, -32
	.cfi_offset w21, -40
	.cfi_offset w22, -48
	.cfi_offset w23, -64
	//DEBUG_VALUE: pch_emui_bootstat_proc_write:p_file <- $x0
	//DEBUG_VALUE: pch_emui_bootstat_proc_write:userbuf <- $x1
	//DEBUG_VALUE: pch_emui_bootstat_proc_write:count <- $x2
	//DEBUG_VALUE: pch_emui_bootstat_proc_write:ppos <- $x3
.Ltmp409:
	//DEBUG_VALUE: copy_from_user:from <- $x1
	//DEBUG_VALUE: _copy_from_user:from <- $x1
	//DEBUG_VALUE: __uaccess_mask_ptr:ptr <- $x1
	adrp	x8, __stack_chk_guard
	ldr	x8, [x8, :lo12:__stack_chk_guard]
	mov	x0, #-1
.Ltmp410:
	str	x8, [sp, #8]
.Ltmp411:
	.loc	1 1087 6 prologue_end   // /mnt/disk/jenkins/workspace/release/opensource/component_code/vendor/huawei/extra/build/build_script/kirin_kernel_release/kernel/mm/pagecache_manage.c:1087:6
	cbz	x1, .LBB16_9
.Ltmp412:
// %bb.1:
	//DEBUG_VALUE: pch_emui_bootstat_proc_write:ppos <- $x3
	//DEBUG_VALUE: pch_emui_bootstat_proc_write:count <- $x2
	//DEBUG_VALUE: pch_emui_bootstat_proc_write:userbuf <- $x1
	.loc	1 0 6 is_stmt 0         // /mnt/disk/jenkins/workspace/release/opensource/component_code/vendor/huawei/extra/build/build_script/kirin_kernel_release/kernel/mm/pagecache_manage.c:0:6
	mov	x19, x2
.Ltmp413:
	//DEBUG_VALUE: pch_emui_bootstat_proc_write:count <- $x19
	.loc	1 1087 6                // /mnt/disk/jenkins/workspace/release/opensource/component_code/vendor/huawei/extra/build/build_script/kirin_kernel_release/kernel/mm/pagecache_manage.c:1087:6
	cbz	x2, .LBB16_9
.Ltmp414:
// %bb.2:
	//DEBUG_VALUE: pch_emui_bootstat_proc_write:count <- $x19
	//DEBUG_VALUE: pch_emui_bootstat_proc_write:ppos <- $x3
	//DEBUG_VALUE: pch_emui_bootstat_proc_write:userbuf <- $x1
	.loc	1 0 0                   // /mnt/disk/jenkins/workspace/release/opensource/component_code/vendor/huawei/extra/build/build_script/kirin_kernel_release/kernel/mm/pagecache_manage.c:0:0
	adrp	x22, pch_info
	ldr	x8, [x22, :lo12:pch_info]
	ldr	w8, [x8, #200]
	.loc	1 1087 6                // /mnt/disk/jenkins/workspace/release/opensource/component_code/vendor/huawei/extra/build/build_script/kirin_kernel_release/kernel/mm/pagecache_manage.c:1087:6
	cmp	w8, #1                  // =1
	b.eq	.LBB16_9
.Ltmp415:
// %bb.3:
	//DEBUG_VALUE: pch_emui_bootstat_proc_write:count <- $x19
	//DEBUG_VALUE: pch_emui_bootstat_proc_write:ppos <- $x3
	//DEBUG_VALUE: pch_emui_bootstat_proc_write:userbuf <- $x1
	.loc	1 0 6                   // /mnt/disk/jenkins/workspace/release/opensource/component_code/vendor/huawei/extra/build/build_script/kirin_kernel_release/kernel/mm/pagecache_manage.c:0:6
	mov	x20, x1
.Ltmp416:
	//DEBUG_VALUE: pch_emui_bootstat_proc_write:userbuf <- $x20
	//DEBUG_VALUE: copy_from_user:from <- $x20
	//DEBUG_VALUE: _copy_from_user:from <- $x20
	//DEBUG_VALUE: __uaccess_mask_ptr:ptr <- $x20
	//DEBUG_VALUE: copy_from_user:n <- 1
	//DEBUG_VALUE: check_copy_size:bytes <- 1
	//DEBUG_VALUE: check_copy_size:is_source <- 0
	//DEBUG_VALUE: check_object_size:n <- 1
	//DEBUG_VALUE: check_object_size:to_user <- 0
	.file	154 "/mnt/disk/jenkins/workspace/release/opensource/component_code/vendor/huawei/extra/build/build_script/kirin_kernel_release/kernel/include/linux/thread_info.h"
	.loc	154 108 3 is_stmt 1     // /mnt/disk/jenkins/workspace/release/opensource/component_code/vendor/huawei/extra/build/build_script/kirin_kernel_release/kernel/include/linux/thread_info.h:108:3
	add	x0, sp, #4              // =4
	orr	w1, wzr, #0x1
	mov	w2, wzr
	orr	w21, wzr, #0x1
	add	x23, sp, #4             // =4
.Ltmp417:
	//DEBUG_VALUE: check_object_size:ptr <- [DW_OP_plus_uconst 4] $sp
	//DEBUG_VALUE: check_copy_size:addr <- [DW_OP_plus_uconst 4] $sp
	//DEBUG_VALUE: copy_from_user:to <- [DW_OP_plus_uconst 4] $sp
	//DEBUG_VALUE: pch_emui_bootstat_proc_write:buf <- [DW_OP_plus_uconst 4, DW_OP_deref] $sp
	bl	__check_object_size
.Ltmp418:
	//DEBUG_VALUE: __range_ok:size <- 1
	//DEBUG_VALUE: __range_ok:addr <- $x20
	//DEBUG_VALUE: _copy_from_user:res <- 1
	//DEBUG_VALUE: _copy_from_user:n <- 1
	//DEBUG_VALUE: _copy_from_user:to <- [DW_OP_plus_uconst 4] $sp
	.file	155 "/mnt/disk/jenkins/workspace/release/opensource/component_code/vendor/huawei/extra/build/build_script/kirin_kernel_release/kernel/arch/arm64/include/asm/current.h"
	.loc	155 19 2                // /mnt/disk/jenkins/workspace/release/opensource/component_code/vendor/huawei/extra/build/build_script/kirin_kernel_release/kernel/arch/arm64/include/asm/current.h:19:2
	//APP
	mrs x8, sp_el0
	//NO_APP
.Ltmp419:
	//DEBUG_VALUE: get_current:sp_el0 <- $x8
	//DEBUG_VALUE: get_current:sp_el0 <- $x8
	.file	156 "/mnt/disk/jenkins/workspace/release/opensource/component_code/vendor/huawei/extra/build/build_script/kirin_kernel_release/kernel/arch/arm64/include/asm/uaccess.h"
	.loc	156 84 24               // /mnt/disk/jenkins/workspace/release/opensource/component_code/vendor/huawei/extra/build/build_script/kirin_kernel_release/kernel/arch/arm64/include/asm/uaccess.h:84:24
	ldr	x9, [x8, #8]
.Ltmp420:
	//DEBUG_VALUE: __range_ok:limit <- $x9
	.loc	156 87 2                // /mnt/disk/jenkins/workspace/release/opensource/component_code/vendor/huawei/extra/build/build_script/kirin_kernel_release/kernel/arch/arm64/include/asm/uaccess.h:87:2
	mov	x10, x20
	//APP
		adds	x10, x10, #1
	csel	x9, xzr, x9, hi
	csinv	x10, x10, xzr, cc
	sbcs	xzr, x10, x9
	cset	x10, ls

	//NO_APP
.Ltmp421:
	//DEBUG_VALUE: __range_ok:addr <- $x10
	.file	157 "/mnt/disk/jenkins/workspace/release/opensource/component_code/vendor/huawei/extra/build/build_script/kirin_kernel_release/kernel/include/linux/uaccess.h"
	.loc	157 114 6               // /mnt/disk/jenkins/workspace/release/opensource/component_code/vendor/huawei/extra/build/build_script/kirin_kernel_release/kernel/include/linux/uaccess.h:114:6
	cbz	x10, .LBB16_12
.Ltmp422:
// %bb.4:
	//DEBUG_VALUE: _copy_from_user:to <- [DW_OP_plus_uconst 4] $sp
	//DEBUG_VALUE: pch_emui_bootstat_proc_write:buf <- [DW_OP_plus_uconst 4, DW_OP_deref] $sp
	//DEBUG_VALUE: copy_from_user:to <- [DW_OP_plus_uconst 4] $sp
	//DEBUG_VALUE: __uaccess_mask_ptr:ptr <- $x20
	//DEBUG_VALUE: _copy_from_user:from <- $x20
	//DEBUG_VALUE: copy_from_user:from <- $x20
	//DEBUG_VALUE: pch_emui_bootstat_proc_write:userbuf <- $x20
	//DEBUG_VALUE: pch_emui_bootstat_proc_write:count <- $x19
	.loc	156 245 20              // /mnt/disk/jenkins/workspace/release/opensource/component_code/vendor/huawei/extra/build/build_script/kirin_kernel_release/kernel/arch/arm64/include/asm/uaccess.h:245:20
	ldr	x8, [x8, #8]
	.loc	156 241 2               // /mnt/disk/jenkins/workspace/release/opensource/component_code/vendor/huawei/extra/build/build_script/kirin_kernel_release/kernel/arch/arm64/include/asm/uaccess.h:241:2
	//APP
		bics	xzr, x20, x8
	csel	x1, x20, xzr, eq

	//NO_APP
.Ltmp423:
	//DEBUG_VALUE: __uaccess_mask_ptr:safe_ptr <- $x1
	.loc	156 248 2               // /mnt/disk/jenkins/workspace/release/opensource/component_code/vendor/huawei/extra/build/build_script/kirin_kernel_release/kernel/arch/arm64/include/asm/uaccess.h:248:2
	//APP
	hint #20
	//NO_APP
.Ltmp424:
	.loc	157 116 9               // /mnt/disk/jenkins/workspace/release/opensource/component_code/vendor/huawei/extra/build/build_script/kirin_kernel_release/kernel/include/linux/uaccess.h:116:9
	add	x0, sp, #4              // =4
	orr	w2, wzr, #0x1
	bl	__arch_copy_from_user
.Ltmp425:
	.loc	157 118 6               // /mnt/disk/jenkins/workspace/release/opensource/component_code/vendor/huawei/extra/build/build_script/kirin_kernel_release/kernel/include/linux/uaccess.h:118:6
	cbnz	x0, .LBB16_11
.Ltmp426:
// %bb.5:
	//DEBUG_VALUE: pch_emui_bootstat_proc_write:buf <- [DW_OP_plus_uconst 4, DW_OP_deref] $sp
	//DEBUG_VALUE: copy_from_user:to <- [DW_OP_plus_uconst 4] $sp
	//DEBUG_VALUE: copy_from_user:from <- $x20
	//DEBUG_VALUE: pch_emui_bootstat_proc_write:userbuf <- $x20
	//DEBUG_VALUE: pch_emui_bootstat_proc_write:count <- $x19
	//DEBUG_VALUE: copy_from_user:n <- 0
	.loc	1 1099 13               // /mnt/disk/jenkins/workspace/release/opensource/component_code/vendor/huawei/extra/build/build_script/kirin_kernel_release/kernel/mm/pagecache_manage.c:1099:13
	ldrb	w8, [sp, #4]
.Ltmp427:
	//DEBUG_VALUE: pch_emui_bootstat_proc_write:getvalue <- [DW_OP_constu 48, DW_OP_minus, DW_OP_stack_value] $w8
	//DEBUG_VALUE: pch_emui_bootstat_proc_write:buf <- $w8
	.loc	1 1101 6                // /mnt/disk/jenkins/workspace/release/opensource/component_code/vendor/huawei/extra/build/build_script/kirin_kernel_release/kernel/mm/pagecache_manage.c:1101:6
	cmp	w8, #49                 // =49
	b.ne	.LBB16_7
.Ltmp428:
// %bb.6:
	//DEBUG_VALUE: pch_emui_bootstat_proc_write:buf <- $w8
	//DEBUG_VALUE: pch_emui_bootstat_proc_write:getvalue <- [DW_OP_constu 48, DW_OP_minus, DW_OP_stack_value] $w8
	//DEBUG_VALUE: pch_emui_bootstat_proc_write:userbuf <- $x20
	//DEBUG_VALUE: pch_emui_bootstat_proc_write:count <- $x19
	.loc	1 1106 2                // /mnt/disk/jenkins/workspace/release/opensource/component_code/vendor/huawei/extra/build/build_script/kirin_kernel_release/kernel/mm/pagecache_manage.c:1106:2
	ldr	x8, [x22, :lo12:pch_info]
.Ltmp429:
	.loc	1 0 2 is_stmt 0         // /mnt/disk/jenkins/workspace/release/opensource/component_code/vendor/huawei/extra/build/build_script/kirin_kernel_release/kernel/mm/pagecache_manage.c:0:2
	orr	w9, wzr, #0x1
	mov	x0, x19
	.loc	1 1106 24               // /mnt/disk/jenkins/workspace/release/opensource/component_code/vendor/huawei/extra/build/build_script/kirin_kernel_release/kernel/mm/pagecache_manage.c:1106:24
	str	w9, [x8, #200]
	b	.LBB16_9
.Ltmp430:
.LBB16_7:
	//DEBUG_VALUE: pch_emui_bootstat_proc_write:buf <- $w8
	//DEBUG_VALUE: pch_emui_bootstat_proc_write:getvalue <- [DW_OP_constu 48, DW_OP_minus, DW_OP_stack_value] $w8
	//DEBUG_VALUE: pch_emui_bootstat_proc_write:userbuf <- $x20
	//DEBUG_VALUE: pch_emui_bootstat_proc_write:count <- $x19
	.loc	1 1102 3 is_stmt 1      // /mnt/disk/jenkins/workspace/release/opensource/component_code/vendor/huawei/extra/build/build_script/kirin_kernel_release/kernel/mm/pagecache_manage.c:1102:3
	adrp	x0, .L.str.9
	adrp	x1, .L__func__.pch_emui_bootstat_proc_write
	add	x0, x0, :lo12:.L.str.9
	add	x1, x1, :lo12:.L__func__.pch_emui_bootstat_proc_write
	bl	printk
.Ltmp431:
.LBB16_8:
	//DEBUG_VALUE: pch_emui_bootstat_proc_write:userbuf <- $x20
	//DEBUG_VALUE: pch_emui_bootstat_proc_write:count <- $x19
	.loc	1 0 3 is_stmt 0         // /mnt/disk/jenkins/workspace/release/opensource/component_code/vendor/huawei/extra/build/build_script/kirin_kernel_release/kernel/mm/pagecache_manage.c:0:3
	mov	x0, #-1
.Ltmp432:
.LBB16_9:
	adrp	x9, __stack_chk_guard
	ldr	x8, [sp, #8]
	ldr	x9, [x9, :lo12:__stack_chk_guard]
	cmp	x9, x8
	b.ne	.LBB16_13
// %bb.10:
	.loc	1 1110 1 is_stmt 1      // /mnt/disk/jenkins/workspace/release/opensource/component_code/vendor/huawei/extra/build/build_script/kirin_kernel_release/kernel/mm/pagecache_manage.c:1110:1
	ldp	x29, x30, [sp, #64]     // 16-byte Folded Reload
	ldp	x20, x19, [sp, #48]     // 16-byte Folded Reload
	ldp	x22, x21, [sp, #32]     // 16-byte Folded Reload
	ldr	x23, [sp, #16]          // 8-byte Folded Reload
	add	sp, sp, #80             // =80
	ret
.LBB16_11:
.Ltmp433:
	//DEBUG_VALUE: _copy_from_user:to <- [DW_OP_plus_uconst 4] $sp
	//DEBUG_VALUE: pch_emui_bootstat_proc_write:buf <- [DW_OP_plus_uconst 4, DW_OP_deref] $sp
	//DEBUG_VALUE: copy_from_user:to <- [DW_OP_plus_uconst 4] $sp
	//DEBUG_VALUE: _copy_from_user:from <- $x20
	//DEBUG_VALUE: copy_from_user:from <- $x20
	//DEBUG_VALUE: pch_emui_bootstat_proc_write:userbuf <- $x20
	//DEBUG_VALUE: pch_emui_bootstat_proc_write:count <- $x19
	.loc	1 0 1 is_stmt 0         // /mnt/disk/jenkins/workspace/release/opensource/component_code/vendor/huawei/extra/build/build_script/kirin_kernel_release/kernel/mm/pagecache_manage.c:0:1
	mov	x21, x0
.Ltmp434:
	//DEBUG_VALUE: _copy_from_user:res <- $x21
.LBB16_12:
	//DEBUG_VALUE: _copy_from_user:to <- [DW_OP_plus_uconst 4] $sp
	//DEBUG_VALUE: pch_emui_bootstat_proc_write:buf <- [DW_OP_plus_uconst 4, DW_OP_deref] $sp
	//DEBUG_VALUE: copy_from_user:to <- [DW_OP_plus_uconst 4] $sp
	//DEBUG_VALUE: _copy_from_user:from <- $x20
	//DEBUG_VALUE: copy_from_user:from <- $x20
	//DEBUG_VALUE: pch_emui_bootstat_proc_write:userbuf <- $x20
	//DEBUG_VALUE: pch_emui_bootstat_proc_write:count <- $x19
	orr	w8, wzr, #0x1
.Ltmp435:
	.loc	157 119 18 is_stmt 1    // /mnt/disk/jenkins/workspace/release/opensource/component_code/vendor/huawei/extra/build/build_script/kirin_kernel_release/kernel/include/linux/uaccess.h:119:18
	sub	x8, x8, x21
	.loc	157 119 13 is_stmt 0    // /mnt/disk/jenkins/workspace/release/opensource/component_code/vendor/huawei/extra/build/build_script/kirin_kernel_release/kernel/include/linux/uaccess.h:119:13
	add	x0, x23, x8
	.loc	157 119 3               // /mnt/disk/jenkins/workspace/release/opensource/component_code/vendor/huawei/extra/build/build_script/kirin_kernel_release/kernel/include/linux/uaccess.h:119:3
	mov	w1, wzr
	mov	x2, x21
	bl	memset
	b	.LBB16_8
.Ltmp436:
.LBB16_13:
	.loc	157 0 3                 // /mnt/disk/jenkins/workspace/release/opensource/component_code/vendor/huawei/extra/build/build_script/kirin_kernel_release/kernel/include/linux/uaccess.h:0:3
	bl	__stack_chk_fail
.Lfunc_end16:
	.size	pch_emui_bootstat_proc_write, .Lfunc_end16-pch_emui_bootstat_proc_write
	.cfi_endproc
                                        // -- End function
	.section	.init.text,"ax",@progbits
	.hidden	hisi_page_cache_manage_init // -- Begin function hisi_page_cache_manage_init
	.globl	hisi_page_cache_manage_init
	.p2align	2
	.type	hisi_page_cache_manage_init,@function
hisi_page_cache_manage_init:            // @hisi_page_cache_manage_init
.Lfunc_begin17:
	.loc	1 1141 0 is_stmt 1      // /mnt/disk/jenkins/workspace/release/opensource/component_code/vendor/huawei/extra/build/build_script/kirin_kernel_release/kernel/mm/pagecache_manage.c:1141:0
	.cfi_startproc
// %bb.0:
	stp	x20, x19, [sp, #-32]!   // 16-byte Folded Spill
	stp	x29, x30, [sp, #16]     // 16-byte Folded Spill
	add	x29, sp, #16            // =16
	.cfi_def_cfa w29, 16
	.cfi_offset w30, -8
	.cfi_offset w29, -16
	.cfi_offset w19, -24
	.cfi_offset w20, -32
.Ltmp437:
	//DEBUG_VALUE: hisi_page_cache_manage_init:ret <- 0
	.loc	1 1150 2 prologue_end   // /mnt/disk/jenkins/workspace/release/opensource/component_code/vendor/huawei/extra/build/build_script/kirin_kernel_release/kernel/mm/pagecache_manage.c:1150:2
	adrp	x19, g_pch_print_level
	ldr	w8, [x19, :lo12:g_pch_print_level]
.Ltmp438:
	.loc	1 1150 2 is_stmt 0      // /mnt/disk/jenkins/workspace/release/opensource/component_code/vendor/huawei/extra/build/build_script/kirin_kernel_release/kernel/mm/pagecache_manage.c:1150:2
	cmp	w8, #2                  // =2
	b.lo	.LBB17_2
// %bb.1:
.Ltmp439:
	.loc	1 1150 2                // /mnt/disk/jenkins/workspace/release/opensource/component_code/vendor/huawei/extra/build/build_script/kirin_kernel_release/kernel/mm/pagecache_manage.c:1150:2
	adrp	x0, .L.str.10
	adrp	x1, .L__func__.hisi_page_cache_manage_init
	add	x0, x0, :lo12:.L.str.10
	add	x1, x1, :lo12:.L__func__.hisi_page_cache_manage_init
	bl	printk
.Ltmp440:
.LBB17_2:
	//DEBUG_VALUE: kzalloc:size <- 232
	//DEBUG_VALUE: kzalloc:flags <- 20971712
	//DEBUG_VALUE: kmalloc:size <- 232
	//DEBUG_VALUE: kmalloc:flags <- 21004480
	.file	158 "/mnt/disk/jenkins/workspace/release/opensource/component_code/vendor/huawei/extra/build/build_script/kirin_kernel_release/kernel/include/linux/slab.h"
	.loc	158 520 9 is_stmt 1     // /mnt/disk/jenkins/workspace/release/opensource/component_code/vendor/huawei/extra/build/build_script/kirin_kernel_release/kernel/include/linux/slab.h:520:9
	mov	w1, #32960
	mov	w0, #232
	movk	w1, #320, lsl #16
	bl	__kmalloc
.Ltmp441:
	.loc	1 1152 11               // /mnt/disk/jenkins/workspace/release/opensource/component_code/vendor/huawei/extra/build/build_script/kirin_kernel_release/kernel/mm/pagecache_manage.c:1152:11
	adrp	x20, pch_info
	str	x0, [x20, :lo12:pch_info]
	.loc	1 1153 6                // /mnt/disk/jenkins/workspace/release/opensource/component_code/vendor/huawei/extra/build/build_script/kirin_kernel_release/kernel/mm/pagecache_manage.c:1153:6
	cbz	x0, .LBB17_6
// %bb.3:
	.loc	1 0 6 is_stmt 0         // /mnt/disk/jenkins/workspace/release/opensource/component_code/vendor/huawei/extra/build/build_script/kirin_kernel_release/kernel/mm/pagecache_manage.c:0:6
	mov	x9, #16
	orr	w8, wzr, #0x1
	movk	x9, #8, lsl #32
	.loc	1 1156 24 is_stmt 1     // /mnt/disk/jenkins/workspace/release/opensource/component_code/vendor/huawei/extra/build/build_script/kirin_kernel_release/kernel/mm/pagecache_manage.c:1156:24
	str	w8, [x0, #200]
	.loc	1 1158 31               // /mnt/disk/jenkins/workspace/release/opensource/component_code/vendor/huawei/extra/build/build_script/kirin_kernel_release/kernel/mm/pagecache_manage.c:1158:31
	stp	x9, x8, [x0, #216]
	.loc	1 1161 21               // /mnt/disk/jenkins/workspace/release/opensource/component_code/vendor/huawei/extra/build/build_script/kirin_kernel_release/kernel/mm/pagecache_manage.c:1161:21
	bl	get_bootdevice_type
.Ltmp442:
	//DEBUG_VALUE: hisi_page_cache_manage_init:boot_device_type <- $w0
	.loc	1 1162 6                // /mnt/disk/jenkins/workspace/release/opensource/component_code/vendor/huawei/extra/build/build_script/kirin_kernel_release/kernel/mm/pagecache_manage.c:1162:6
	cbz	w0, .LBB17_7
.Ltmp443:
// %bb.4:
	//DEBUG_VALUE: hisi_page_cache_manage_init:boot_device_type <- $w0
	cmp	w0, #1                  // =1
	b.ne	.LBB17_10
.Ltmp444:
// %bb.5:
	//DEBUG_VALUE: hisi_page_cache_manage_init:boot_device_type <- $w0
	.loc	1 0 6 is_stmt 0         // /mnt/disk/jenkins/workspace/release/opensource/component_code/vendor/huawei/extra/build/build_script/kirin_kernel_release/kernel/mm/pagecache_manage.c:0:6
	orr	w8, wzr, #0x10
	b	.LBB17_8
.Ltmp445:
.LBB17_6:
	mov	w0, #-12
	b	.LBB17_14
.LBB17_7:
.Ltmp446:
	//DEBUG_VALUE: hisi_page_cache_manage_init:boot_device_type <- $w0
	orr	w8, wzr, #0x8
.Ltmp447:
.LBB17_8:
	//DEBUG_VALUE: hisi_page_cache_manage_init:boot_device_type <- $w0
	ldr	x9, [x20, :lo12:pch_info]
.Ltmp448:
	.loc	1 1122 7 is_stmt 1      // /mnt/disk/jenkins/workspace/release/opensource/component_code/vendor/huawei/extra/build/build_script/kirin_kernel_release/kernel/mm/pagecache_manage.c:1122:7
	mov	x1, xzr
.Ltmp449:
	.loc	1 0 0 is_stmt 0         // /mnt/disk/jenkins/workspace/release/opensource/component_code/vendor/huawei/extra/build/build_script/kirin_kernel_release/kernel/mm/pagecache_manage.c:0:0
	str	w0, [x9, #204]
.Ltmp450:
	.loc	1 1122 7                // /mnt/disk/jenkins/workspace/release/opensource/component_code/vendor/huawei/extra/build/build_script/kirin_kernel_release/kernel/mm/pagecache_manage.c:1122:7
	adrp	x0, .L.str.15
.Ltmp451:
	add	x0, x0, :lo12:.L.str.15
.Ltmp452:
	.loc	1 0 0                   // /mnt/disk/jenkins/workspace/release/opensource/component_code/vendor/huawei/extra/build/build_script/kirin_kernel_release/kernel/mm/pagecache_manage.c:0:0
	stp	w8, w8, [x9, #208]
.Ltmp453:
	.loc	1 1122 7                // /mnt/disk/jenkins/workspace/release/opensource/component_code/vendor/huawei/extra/build/build_script/kirin_kernel_release/kernel/mm/pagecache_manage.c:1122:7
	bl	proc_mkdir
.Ltmp454:
	.loc	1 1122 6                // /mnt/disk/jenkins/workspace/release/opensource/component_code/vendor/huawei/extra/build/build_script/kirin_kernel_release/kernel/mm/pagecache_manage.c:1122:6
	cbz	x0, .LBB17_11
// %bb.9:
	.loc	1 1127 2 is_stmt 1      // /mnt/disk/jenkins/workspace/release/opensource/component_code/vendor/huawei/extra/build/build_script/kirin_kernel_release/kernel/mm/pagecache_manage.c:1127:2
	adrp	x0, .L.str.14
	adrp	x3, pch_emui_boot_done_fops
	add	x0, x0, :lo12:.L.str.14
	add	x3, x3, :lo12:pch_emui_boot_done_fops
	mov	w1, #432
	mov	x2, xzr
	bl	proc_create
	b	.LBB17_12
.Ltmp455:
.LBB17_10:
	//DEBUG_VALUE: hisi_page_cache_manage_init:boot_device_type <- $w0
	.loc	1 1171 3                // /mnt/disk/jenkins/workspace/release/opensource/component_code/vendor/huawei/extra/build/build_script/kirin_kernel_release/kernel/mm/pagecache_manage.c:1171:3
	adrp	x0, .L.str.11
.Ltmp456:
	adrp	x1, .L__func__.hisi_page_cache_manage_init
	add	x0, x0, :lo12:.L.str.11
	add	x1, x1, :lo12:.L__func__.hisi_page_cache_manage_init
	bl	printk
.Ltmp457:
	//DEBUG_VALUE: hisi_page_cache_manage_init:ret <- -1
	.loc	1 1241 8                // /mnt/disk/jenkins/workspace/release/opensource/component_code/vendor/huawei/extra/build/build_script/kirin_kernel_release/kernel/mm/pagecache_manage.c:1241:8
	ldr	x0, [x20, :lo12:pch_info]
	.loc	1 1241 2 is_stmt 0      // /mnt/disk/jenkins/workspace/release/opensource/component_code/vendor/huawei/extra/build/build_script/kirin_kernel_release/kernel/mm/pagecache_manage.c:1241:2
	bl	kfree
	.loc	1 1242 11 is_stmt 1     // /mnt/disk/jenkins/workspace/release/opensource/component_code/vendor/huawei/extra/build/build_script/kirin_kernel_release/kernel/mm/pagecache_manage.c:1242:11
	str	xzr, [x20, :lo12:pch_info]
	mov	w0, #-1
	b	.LBB17_14
.LBB17_11:
.Ltmp458:
	.loc	1 1123 3                // /mnt/disk/jenkins/workspace/release/opensource/component_code/vendor/huawei/extra/build/build_script/kirin_kernel_release/kernel/mm/pagecache_manage.c:1123:3
	adrp	x0, .L.str.21
	adrp	x1, .L__func__.pch_emui_boot_check_init
	add	x0, x0, :lo12:.L.str.21
	add	x1, x1, :lo12:.L__func__.pch_emui_boot_check_init
	bl	printk
.Ltmp459:
.LBB17_12:
	.loc	1 1220 2                // /mnt/disk/jenkins/workspace/release/opensource/component_code/vendor/huawei/extra/build/build_script/kirin_kernel_release/kernel/mm/pagecache_manage.c:1220:2
	ldr	x8, [x20, :lo12:pch_info]
	mov	w1, wzr
	mov	x2, xzr
	mov	x3, xzr
	add	x0, x8, #64             // =64
	bl	init_timer_key
	ldr	x8, [x20, :lo12:pch_info]
	adrp	x9, __cfi_pch_timeout_timer
	add	x9, x9, :lo12:__cfi_pch_timeout_timer
.Ltmp460:
	.loc	1 1223 2                // /mnt/disk/jenkins/workspace/release/opensource/component_code/vendor/huawei/extra/build/build_script/kirin_kernel_release/kernel/mm/pagecache_manage.c:1223:2
	adrp	x11, __cfi_pch_timeout_work
	mov	x10, #68719476704
	add	x11, x11, :lo12:__cfi_pch_timeout_work
.Ltmp461:
	.loc	1 1220 2                // /mnt/disk/jenkins/workspace/release/opensource/component_code/vendor/huawei/extra/build/build_script/kirin_kernel_release/kernel/mm/pagecache_manage.c:1220:2
	stp	x9, x8, [x8, #88]
.Ltmp462:
	.loc	1 1223 2                // /mnt/disk/jenkins/workspace/release/opensource/component_code/vendor/huawei/extra/build/build_script/kirin_kernel_release/kernel/mm/pagecache_manage.c:1223:2
	add	x9, x8, #120            // =120
.Ltmp463:
	//DEBUG_VALUE: __write_once_size:p <- $x9
	//DEBUG_VALUE: __write_once_size:size <- 8
	//DEBUG_VALUE: __write_once_size:res <- undef
	//DEBUG_VALUE: INIT_LIST_HEAD:list <- $x9
	str	x10, [x8, #112]
.Ltmp464:
	.loc	145 213 31              // /mnt/disk/jenkins/workspace/release/opensource/component_code/vendor/huawei/extra/build/build_script/kirin_kernel_release/kernel/include/linux/compiler.h:213:31
	str	x9, [x8, #120]
.Ltmp465:
	.loc	148 29 13               // /mnt/disk/jenkins/workspace/release/opensource/component_code/vendor/huawei/extra/build/build_script/kirin_kernel_release/kernel/include/linux/list.h:29:13
	stp	x9, x11, [x8, #128]
	mov	w9, #-1
.Ltmp466:
	//DEBUG_VALUE: sema_init:val <- 1
	//DEBUG_VALUE: sema_init:sem <- [DW_OP_plus_uconst 144, DW_OP_stack_value] $x8
	.loc	141 35 9                // /mnt/disk/jenkins/workspace/release/opensource/component_code/vendor/huawei/extra/build/build_script/kirin_kernel_release/kernel/include/linux/semaphore.h:35:9
	str	w9, [x8, #152]
	orr	w9, wzr, #0x1
	str	w9, [x8, #168]
.Ltmp467:
	.loc	1 154 26                // /mnt/disk/jenkins/workspace/release/opensource/component_code/vendor/huawei/extra/build/build_script/kirin_kernel_release/kernel/mm/pagecache_manage.c:154:26
	ldr	w9, [x8, #228]
	mov	x12, #86504936308736
	mov	x10, #-1
	movk	x12, #57005, lsl #48
.Ltmp468:
	.loc	141 35 9                // /mnt/disk/jenkins/workspace/release/opensource/component_code/vendor/huawei/extra/build/build_script/kirin_kernel_release/kernel/include/linux/semaphore.h:35:9
	str	x10, [x8, #160]
	.loc	141 35 28 is_stmt 0     // /mnt/disk/jenkins/workspace/release/opensource/component_code/vendor/huawei/extra/build/build_script/kirin_kernel_release/kernel/include/linux/semaphore.h:35:28
	add	x10, x8, #176           // =176
.Ltmp469:
	//DEBUG_VALUE: sema_init:val <- 1
	//DEBUG_VALUE: sema_init:sem <- [DW_OP_plus_uconst 144, DW_OP_stack_value] $x8
	.loc	1 154 26 is_stmt 1      // /mnt/disk/jenkins/workspace/release/opensource/component_code/vendor/huawei/extra/build/build_script/kirin_kernel_release/kernel/mm/pagecache_manage.c:154:26
	orr	w9, w9, #0x4
.Ltmp470:
	.loc	141 35 9                // /mnt/disk/jenkins/workspace/release/opensource/component_code/vendor/huawei/extra/build/build_script/kirin_kernel_release/kernel/include/linux/semaphore.h:35:9
	str	x12, [x8, #144]
	stp	x10, x10, [x8, #176]
.Ltmp471:
	.loc	1 154 26                // /mnt/disk/jenkins/workspace/release/opensource/component_code/vendor/huawei/extra/build/build_script/kirin_kernel_release/kernel/mm/pagecache_manage.c:154:26
	str	w9, [x8, #228]
.Ltmp472:
	.loc	1 1228 2                // /mnt/disk/jenkins/workspace/release/opensource/component_code/vendor/huawei/extra/build/build_script/kirin_kernel_release/kernel/mm/pagecache_manage.c:1228:2
	ldr	w8, [x19, :lo12:g_pch_print_level]
.Ltmp473:
	.loc	1 0 0 is_stmt 0         // /mnt/disk/jenkins/workspace/release/opensource/component_code/vendor/huawei/extra/build/build_script/kirin_kernel_release/kernel/mm/pagecache_manage.c:0:0
	mov	w0, wzr
.Ltmp474:
	.loc	1 1228 2                // /mnt/disk/jenkins/workspace/release/opensource/component_code/vendor/huawei/extra/build/build_script/kirin_kernel_release/kernel/mm/pagecache_manage.c:1228:2
	cmp	w8, #2                  // =2
	b.lo	.LBB17_14
// %bb.13:
.Ltmp475:
	.loc	1 1228 2                // /mnt/disk/jenkins/workspace/release/opensource/component_code/vendor/huawei/extra/build/build_script/kirin_kernel_release/kernel/mm/pagecache_manage.c:1228:2
	adrp	x0, .L.str.12
	adrp	x1, .L__func__.hisi_page_cache_manage_init
	add	x0, x0, :lo12:.L.str.12
	add	x1, x1, :lo12:.L__func__.hisi_page_cache_manage_init
	bl	printk
.Ltmp476:
	.loc	1 0 0                   // /mnt/disk/jenkins/workspace/release/opensource/component_code/vendor/huawei/extra/build/build_script/kirin_kernel_release/kernel/mm/pagecache_manage.c:0:0
	mov	w0, wzr
.LBB17_14:
	.loc	1 1245 1 is_stmt 1      // /mnt/disk/jenkins/workspace/release/opensource/component_code/vendor/huawei/extra/build/build_script/kirin_kernel_release/kernel/mm/pagecache_manage.c:1245:1
	ldp	x29, x30, [sp, #16]     // 16-byte Folded Reload
	ldp	x20, x19, [sp], #32     // 16-byte Folded Reload
	ret
.Ltmp477:
.Lfunc_end17:
	.size	hisi_page_cache_manage_init, .Lfunc_end17-hisi_page_cache_manage_init
	.cfi_endproc
                                        // -- End function
	.section	.exit.text,"ax",@progbits
	.hidden	hisi_page_cache_manage_exit // -- Begin function hisi_page_cache_manage_exit
	.globl	hisi_page_cache_manage_exit
	.p2align	2
	.type	hisi_page_cache_manage_exit,@function
hisi_page_cache_manage_exit:            // @hisi_page_cache_manage_exit
.Lfunc_begin18:
	.loc	1 1256 0                // /mnt/disk/jenkins/workspace/release/opensource/component_code/vendor/huawei/extra/build/build_script/kirin_kernel_release/kernel/mm/pagecache_manage.c:1256:0
	.cfi_startproc
// %bb.0:
	stp	x20, x19, [sp, #-32]!   // 16-byte Folded Spill
	stp	x29, x30, [sp, #16]     // 16-byte Folded Spill
	add	x29, sp, #16            // =16
	.cfi_def_cfa w29, 16
	.cfi_offset w30, -8
	.cfi_offset w29, -16
	.cfi_offset w19, -24
	.cfi_offset w20, -32
.Ltmp478:
	.loc	1 1257 2 prologue_end   // /mnt/disk/jenkins/workspace/release/opensource/component_code/vendor/huawei/extra/build/build_script/kirin_kernel_release/kernel/mm/pagecache_manage.c:1257:2
	adrp	x19, g_pch_print_level
	ldr	w8, [x19, :lo12:g_pch_print_level]
.Ltmp479:
	.loc	1 1257 2 is_stmt 0      // /mnt/disk/jenkins/workspace/release/opensource/component_code/vendor/huawei/extra/build/build_script/kirin_kernel_release/kernel/mm/pagecache_manage.c:1257:2
	cmp	w8, #2                  // =2
	b.lo	.LBB18_2
// %bb.1:
.Ltmp480:
	.loc	1 1257 2                // /mnt/disk/jenkins/workspace/release/opensource/component_code/vendor/huawei/extra/build/build_script/kirin_kernel_release/kernel/mm/pagecache_manage.c:1257:2
	adrp	x0, .L.str.13
	adrp	x1, .L__func__.hisi_page_cache_manage_exit
	add	x0, x0, :lo12:.L.str.13
	add	x1, x1, :lo12:.L__func__.hisi_page_cache_manage_exit
	bl	printk
.Ltmp481:
.LBB18_2:
	.loc	1 1259 2 is_stmt 1      // /mnt/disk/jenkins/workspace/release/opensource/component_code/vendor/huawei/extra/build/build_script/kirin_kernel_release/kernel/mm/pagecache_manage.c:1259:2
	adrp	x0, .L.str.14
	add	x0, x0, :lo12:.L.str.14
	mov	x1, xzr
	bl	remove_proc_entry
	.loc	1 1260 2                // /mnt/disk/jenkins/workspace/release/opensource/component_code/vendor/huawei/extra/build/build_script/kirin_kernel_release/kernel/mm/pagecache_manage.c:1260:2
	adrp	x0, .L.str.15
	add	x0, x0, :lo12:.L.str.15
	mov	x1, xzr
	bl	remove_proc_entry
	.loc	1 1265 8                // /mnt/disk/jenkins/workspace/release/opensource/component_code/vendor/huawei/extra/build/build_script/kirin_kernel_release/kernel/mm/pagecache_manage.c:1265:8
	adrp	x20, pch_info
	ldr	x0, [x20, :lo12:pch_info]
	.loc	1 1265 2 is_stmt 0      // /mnt/disk/jenkins/workspace/release/opensource/component_code/vendor/huawei/extra/build/build_script/kirin_kernel_release/kernel/mm/pagecache_manage.c:1265:2
	bl	kfree
.Ltmp482:
	.loc	1 1267 2 is_stmt 1      // /mnt/disk/jenkins/workspace/release/opensource/component_code/vendor/huawei/extra/build/build_script/kirin_kernel_release/kernel/mm/pagecache_manage.c:1267:2
	ldr	w8, [x19, :lo12:g_pch_print_level]
.Ltmp483:
	.loc	1 1266 11               // /mnt/disk/jenkins/workspace/release/opensource/component_code/vendor/huawei/extra/build/build_script/kirin_kernel_release/kernel/mm/pagecache_manage.c:1266:11
	str	xzr, [x20, :lo12:pch_info]
.Ltmp484:
	.loc	1 1267 2                // /mnt/disk/jenkins/workspace/release/opensource/component_code/vendor/huawei/extra/build/build_script/kirin_kernel_release/kernel/mm/pagecache_manage.c:1267:2
	cmp	w8, #2                  // =2
	b.lo	.LBB18_4
// %bb.3:
.Ltmp485:
	.loc	1 1267 2 is_stmt 0      // /mnt/disk/jenkins/workspace/release/opensource/component_code/vendor/huawei/extra/build/build_script/kirin_kernel_release/kernel/mm/pagecache_manage.c:1267:2
	adrp	x0, .L.str.16
	adrp	x1, .L__func__.hisi_page_cache_manage_exit
	add	x0, x0, :lo12:.L.str.16
	add	x1, x1, :lo12:.L__func__.hisi_page_cache_manage_exit
	bl	printk
.Ltmp486:
.LBB18_4:
	.loc	1 1268 1 is_stmt 1      // /mnt/disk/jenkins/workspace/release/opensource/component_code/vendor/huawei/extra/build/build_script/kirin_kernel_release/kernel/mm/pagecache_manage.c:1268:1
	ldp	x29, x30, [sp, #16]     // 16-byte Folded Reload
	ldp	x20, x19, [sp], #32     // 16-byte Folded Reload
	ret
.Ltmp487:
.Lfunc_end18:
	.size	hisi_page_cache_manage_exit, .Lfunc_end18-hisi_page_cache_manage_exit
	.cfi_endproc
                                        // -- End function
	.hidden	g_pch_print_level       // @g_pch_print_level
	.type	g_pch_print_level,@object
	.section	.bss.g_pch_print_level,"aw",@nobits
	.globl	g_pch_print_level
	.p2align	2
g_pch_print_level:
	.word	0                       // 0x0
	.size	g_pch_print_level, 4

	.type	pch_info,@object        // @pch_info
	.section	.bss.pch_info,"aw",@nobits
	.p2align	3
pch_info:
	.xword	0
	.size	pch_info, 8

	.type	.L.str.1,@object        // @.str.1
	.section	.rodata.str1.1,"aMS",@progbits,1
.L.str.1:
	.asciz	"\0013%s: err userdata_state = %d.\n"
	.size	.L.str.1, 32

	.type	.L__func__.pch_timeout_work,@object // @__func__.pch_timeout_work
.L__func__.pch_timeout_work:
	.asciz	"pch_timeout_work"
	.size	.L__func__.pch_timeout_work, 17

	.type	.L.str.2,@object        // @.str.2
.L.str.2:
	.asciz	"\0013%s: data remount, return.\n"
	.size	.L.str.2, 29

	.type	.L__func__.mount_fs_register_pch,@object // @__func__.mount_fs_register_pch
.L__func__.mount_fs_register_pch:
	.asciz	"mount_fs_register_pch"
	.size	.L__func__.mount_fs_register_pch, 22

	.type	.L.str.3,@object        // @.str.3
.L.str.3:
	.asciz	"\0013%s: other partitions, return.\n"
	.size	.L.str.3, 33

	.type	.L.str.4,@object        // @.str.4
.L.str.4:
	.asciz	"pagecache_helper"
	.size	.L.str.4, 17

	.type	.L.str.5,@object        // @.str.5
.L.str.5:
	.asciz	"\0013%s: blk busy/idle init failed.\n"
	.size	.L.str.5, 34

	.type	.L.str.6,@object        // @.str.6
.L.str.6:
	.asciz	"\0013%s: blk busy/idle clear failed.\n"
	.size	.L.str.6, 35

	.type	.L__func__.umounting_fs_register_pch,@object // @__func__.umounting_fs_register_pch
.L__func__.umounting_fs_register_pch:
	.asciz	"umounting_fs_register_pch"
	.size	.L__func__.umounting_fs_register_pch, 26

	.type	.L.str.7,@object        // @.str.7
.L.str.7:
	.asciz	"\0013%s: data re-umount, return.\n"
	.size	.L.str.7, 31

	.type	.L__func__.umounted_fs_register_pch,@object // @__func__.umounted_fs_register_pch
.L__func__.umounted_fs_register_pch:
	.asciz	"umounted_fs_register_pch"
	.size	.L__func__.umounted_fs_register_pch, 25

	.type	.L.str.8,@object        // @.str.8
.L.str.8:
	.asciz	"%d\n"
	.size	.L.str.8, 4

	.type	.L.str.9,@object        // @.str.9
.L.str.9:
	.asciz	"\0013%s: input error.\n"
	.size	.L.str.9, 20

	.type	.L__func__.pch_emui_bootstat_proc_write,@object // @__func__.pch_emui_bootstat_proc_write
.L__func__.pch_emui_bootstat_proc_write:
	.asciz	"pch_emui_bootstat_proc_write"
	.size	.L__func__.pch_emui_bootstat_proc_write, 29

	.type	.L.str.10,@object       // @.str.10
.L.str.10:
	.asciz	"\0013%s: module init ++.\n"
	.size	.L.str.10, 23

	.type	.L__func__.hisi_page_cache_manage_init,@object // @__func__.hisi_page_cache_manage_init
.L__func__.hisi_page_cache_manage_init:
	.asciz	"hisi_page_cache_manage_init"
	.size	.L__func__.hisi_page_cache_manage_init, 28

	.type	.L.str.11,@object       // @.str.11
.L.str.11:
	.asciz	"\0013%s: device not supported.\n"
	.size	.L.str.11, 29

	.type	.L.str.12,@object       // @.str.12
.L.str.12:
	.asciz	"\0013%s: module init --.\n"
	.size	.L.str.12, 23

	.type	.L.str.13,@object       // @.str.13
.L.str.13:
	.asciz	"\0013%s: module exit ++.\n"
	.size	.L.str.13, 23

	.type	.L__func__.hisi_page_cache_manage_exit,@object // @__func__.hisi_page_cache_manage_exit
.L__func__.hisi_page_cache_manage_exit:
	.asciz	"hisi_page_cache_manage_exit"
	.size	.L__func__.hisi_page_cache_manage_exit, 28

	.type	.L.str.14,@object       // @.str.14
.L.str.14:
	.asciz	"pch_status/pch_enabled"
	.size	.L.str.14, 23

	.type	.L.str.15,@object       // @.str.15
.L.str.15:
	.asciz	"pch_status"
	.size	.L.str.15, 11

	.type	.L.str.16,@object       // @.str.16
.L.str.16:
	.asciz	"\0013%s: module exit --.\n"
	.size	.L.str.16, 23

	.type	__initcall_66___cfi_hisi_page_cache_manage_init6,@object // @__initcall_66___cfi_hisi_page_cache_manage_init6
	.section	.initcall6.init,"aw",@progbits
	.p2align	3
__initcall_66___cfi_hisi_page_cache_manage_init6:
	.xword	__cfi_hisi_page_cache_manage_init
	.size	__initcall_66___cfi_hisi_page_cache_manage_init6, 8

	.type	__exitcall___cfi_hisi_page_cache_manage_exit,@object // @__exitcall___cfi_hisi_page_cache_manage_exit
	.section	.exitcall.exit,"aw",@progbits
	.p2align	3
__exitcall___cfi_hisi_page_cache_manage_exit:
	.xword	__cfi_hisi_page_cache_manage_exit
	.size	__exitcall___cfi_hisi_page_cache_manage_exit, 8

	.type	.L.str.19,@object       // @.str.19
	.section	.rodata.str1.1,"aMS",@progbits,1
.L.str.19:
	.asciz	"/data"
	.size	.L.str.19, 6

	.type	.L.str.21,@object       // @.str.21
.L.str.21:
	.asciz	"\0013%s: proc mk error.\n"
	.size	.L.str.21, 22

	.type	.L__func__.pch_emui_boot_check_init,@object // @__func__.pch_emui_boot_check_init
.L__func__.pch_emui_boot_check_init:
	.asciz	"pch_emui_boot_check_init"
	.size	.L__func__.pch_emui_boot_check_init, 25

	.type	pch_emui_boot_done_fops,@object // @pch_emui_boot_done_fops
	.section	.rodata.pch_emui_boot_done_fops,"a",@progbits
	.p2align	3
pch_emui_boot_done_fops:
	.xword	0
	.xword	seq_lseek
	.xword	seq_read
	.xword	__cfi_pch_emui_bootstat_proc_write
	.xword	0
	.xword	0
	.xword	0
	.xword	0
	.xword	0
	.xword	0
	.xword	0
	.xword	0
	.xword	__cfi_pch_emui_bootstat_proc_open
	.xword	0
	.xword	single_release
	.xword	0
	.xword	0
	.xword	0
	.xword	0
	.xword	0
	.xword	0
	.xword	0
	.xword	0
	.xword	0
	.xword	0
	.xword	0
	.xword	0
	.xword	0
	.xword	0
	.xword	0
	.size	pch_emui_boot_done_fops, 240
